
CompositeKM.elf:     file format elf32-littleriscv
CompositeKM.elf
architecture: riscv:rv32, flags 0x00000112:
EXEC_P, HAS_SYMS, D_PAGED
start address 0x00000000

Program Header:
    LOAD off    0x00001000 vaddr 0x00000000 paddr 0x00000000 align 2**12
         filesz 0x00005724 memsz 0x00005724 flags r-x
    LOAD off    0x00007000 vaddr 0x20000000 paddr 0x00005724 align 2**12
         filesz 0x00000450 memsz 0x000009c4 flags rw-
    LOAD off    0x00007800 vaddr 0x20007800 paddr 0x20007800 align 2**12
         filesz 0x00000000 memsz 0x00000800 flags rw-

Sections:
Idx Name          Size      VMA       LMA       File off  Algn
  0 .init         00000004  00000000  00000000  00001000  2**1
                  CONTENTS, ALLOC, LOAD, READONLY, CODE
  1 .vector       000001bc  00000004  00000004  00001004  2**1
                  CONTENTS, ALLOC, LOAD, READONLY, CODE
  2 .text         00005564  000001c0  000001c0  000011c0  2**2
                  CONTENTS, ALLOC, LOAD, READONLY, CODE
  3 .fini         00000000  00005724  00005724  00007450  2**0
                  CONTENTS, ALLOC, LOAD, CODE
  4 .dalign       00000000  20000000  20000000  00007450  2**0
                  CONTENTS
  5 .dlalign      00000000  00005724  00005724  00007450  2**0
                  CONTENTS
  6 .data         00000450  20000000  00005724  00007000  2**2
                  CONTENTS, ALLOC, LOAD, DATA
  7 .bss          00000574  20000450  00005b74  00007450  2**2
                  ALLOC
  8 .stack        00000800  20007800  20007800  00007800  2**0
                  ALLOC
  9 .debug_info   00015f35  00000000  00000000  00007450  2**0
                  CONTENTS, READONLY, DEBUGGING
 10 .debug_abbrev 000039f9  00000000  00000000  0001d385  2**0
                  CONTENTS, READONLY, DEBUGGING
 11 .debug_aranges 00000c88  00000000  00000000  00020d80  2**3
                  CONTENTS, READONLY, DEBUGGING
 12 .debug_ranges 00000b28  00000000  00000000  00021a08  2**3
                  CONTENTS, READONLY, DEBUGGING
 13 .debug_line   0000df60  00000000  00000000  00022530  2**0
                  CONTENTS, READONLY, DEBUGGING
 14 .debug_str    00004069  00000000  00000000  00030490  2**0
                  CONTENTS, READONLY, DEBUGGING
 15 .comment      00000033  00000000  00000000  000344f9  2**0
                  CONTENTS, READONLY
 16 .debug_frame  00002cdc  00000000  00000000  0003452c  2**2
                  CONTENTS, READONLY, DEBUGGING
 17 .stabstr      00000117  00000000  00000000  00037208  2**0
                  CONTENTS, READONLY, DEBUGGING
SYMBOL TABLE:
00000000 l    d  .init	00000000 .init
00000004 l    d  .vector	00000000 .vector
000001c0 l    d  .text	00000000 .text
00005724 l    d  .fini	00000000 .fini
20000000 l    d  .dalign	00000000 .dalign
00005724 l    d  .dlalign	00000000 .dlalign
20000000 l    d  .data	00000000 .data
20000450 l    d  .bss	00000000 .bss
20007800 l    d  .stack	00000000 .stack
00000000 l    d  .debug_info	00000000 .debug_info
00000000 l    d  .debug_abbrev	00000000 .debug_abbrev
00000000 l    d  .debug_aranges	00000000 .debug_aranges
00000000 l    d  .debug_ranges	00000000 .debug_ranges
00000000 l    d  .debug_line	00000000 .debug_line
00000000 l    d  .debug_str	00000000 .debug_str
00000000 l    d  .comment	00000000 .comment
00000000 l    d  .debug_frame	00000000 .debug_frame
00000000 l    d  .stabstr	00000000 .stabstr
00000000 l    df *ABS*	00000000 ./Startup/startup_ch32v30x_D8C.o
00000004 l       .vector	00000000 _vector_base
00000000 l    df *ABS*	00000000 ch32v30x_it.c
00000000 l    df *ABS*	00000000 ch32v30x_usbfs_device.c
00000000 l    df *ABS*	00000000 main.c
0000116e l     F .text	000000aa UART1_Init
00001218 l     F .text	000000a8 UART2_Init
00000000 l    df *ABS*	00000000 system_ch32v30x.c
000015b6 l     F .text	00000014 SetSysClock
000015ca l     F .text	00000114 SetSysClockTo96_HSE
00000000 l    df *ABS*	00000000 usbd_compostie_km.c
000016de l     F .text	0000008a UART2_SendReport
00001836 l     F .text	000000e2 Read_Columns
00001918 l     F .text	00000078 Drive_Row_Low
20000470 l     O .bss	00000008 last_report
20000478 l     O .bss	00000001 repeat_counter
00000000 l    df *ABS*	00000000 ch32v30x_dma.c
00000000 l    df *ABS*	00000000 ch32v30x_exti.c
00000000 l    df *ABS*	00000000 ch32v30x_gpio.c
00000000 l    df *ABS*	00000000 ch32v30x_misc.c
00000000 l    df *ABS*	00000000 ch32v30x_pwr.c
00000000 l    df *ABS*	00000000 ch32v30x_rcc.c
2000007c l     O .data	00000010 APBAHBPrescTable
20000444 l     O .data	00000004 ADCPrescTable
00000000 l    df *ABS*	00000000 ch32v30x_spi.c
00000000 l    df *ABS*	00000000 ch32v30x_tim.c
00000000 l    df *ABS*	00000000 ch32v30x_usart.c
00000000 l    df *ABS*	00000000 flash.c
00004130 l     F .text	00000058 FLASH_readWrite
00004188 l     F .text	0000003e cs_pin_init
00000000 l    df *ABS*	00000000 lcd.c
20000490 l     O .bss	00000002 width
20000492 l     O .bss	00000002 height
200005c4 l     O .bss	00000400 color_buffer
00004278 l     F .text	00000048 LCD_WR_REG
000042c0 l     F .text	00000048 LCD_WR_DATA
00004308 l     F .text	00000030 LCD_WriteReg
00000000 l    df *ABS*	00000000 spi.c
20000448 l     O .data	00000004 DummyByte.5364
00000000 l    df *ABS*	00000000 WS2812_PWM_drv.c
00000000 l    df *ABS*	00000000 system.c
00000000 l    df *ABS*	00000000 debug.c
20000494 l     O .bss	00000001 p_us
20000496 l     O .bss	00000002 p_ms
00000000 l    df *ABS*	00000000 memcmp.c
00000000 l    df *ABS*	00000000 memcpy.c
00000000 l    df *ABS*	00000000 usbd_desc.c
00000000 l    df *ABS*	00000000 close.c
000022e4  w      .text	00000000 EXTI2_IRQHandler
000022e4  w      .text	00000000 TIM8_TRG_COM_IRQHandler
000022e4  w      .text	00000000 TIM8_CC_IRQHandler
0000570c g     O .text	00000016 MySerNumInfo
20000456 g     O .bss	00000002 USBFS_SetupReqValue
00002236 g     F .text	00000044 USB_Sleep_Wakeup_CFG
0000272a g     F .text	00000040 DMA_Cmd
000022e4  w      .text	00000000 UART8_IRQHandler
20000c40 g       .data	00000000 __global_pointer$
000022e4  w      .text	00000000 TIM1_CC_IRQHandler
000038f8 g     F .text	00000022 SPI_I2S_SendData
000001c8 g     F .text	00000016 HardFault_Handler
00001120 g     F .text	0000004e USBFS_Send_Resume
000022e4  w      .text	00000000 TIM6_IRQHandler
000022e4  w      .text	00000000 SysTick_Handler
00002fc2 g     F .text	000000d0 NVIC_Init
20000010 g     O .data	0000006c key_matrix
000022e4  w      .text	00000000 PVD_IRQHandler
000022e4  w      .text	00000000 SDIO_IRQHandler
000022e4  w      .text	00000000 TIM9_BRK_IRQHandler
00004c00 g     F .text	000000f8 SPI2_Init
0000391a g     F .text	0000001c SPI_I2S_ReceiveData
000022e4  w      .text	00000000 DMA2_Channel8_IRQHandler
000001c0 g     F .text	00000008 NMI_Handler
000036e4 g     F .text	00000040 RCC_USBHSPHYPLLALIVEcmd
000022e4  w      .text	00000000 CAN2_RX1_IRQHandler
000022e4  w      .text	00000000 EXTI3_IRQHandler
00003db4 g     F .text	00000068 TIM_DMACmd
00000244 g     F .text	00000044 USBFS_RCC_Init
000022e4  w      .text	00000000 USBHS_IRQHandler
000040ec g     F .text	00000044 USART_GetFlagStatus
000022e4  w      .text	00000000 DMA2_Channel9_IRQHandler
000022e4  w      .text	00000000 TIM10_CC_IRQHandler
20000450 g       .bss	00000000 _sbss
00000800 g       *ABS*	00000000 __stack_size
2000045a g     O .bss	00000002 USBFS_SetupReqLen
00002682 g     F .text	000000a8 DMA_Init
00000638 g     F .text	00000ae8 USBFS_IRQHandler
00004ff6 g     F .text	00000252 WS2812_SendData
00004a6c g     F .text	000000f4 SPI1_Read_DMA_Init
00003724 g     F .text	0000003e RCC_USBCLK48MConfig
00005624 g     O .text	00000012 MyDevDescr
00003cec g     F .text	00000060 TIM_CtrlPWMOutputs
20000304 g     O .data	0000013c color3
00005484 g     F .text	000000b2 memcpy
00002d36 g     F .text	000001d0 GPIO_PinRemapConfig
20000464 g     O .bss	00000002 USBFS_HidProtocol
000001de g     F .text	00000032 EXTI0_IRQHandler
000022e4  w      .text	00000000 I2C2_EV_IRQHandler
000022e4  w      .text	00000000 TIM10_TRG_COM_IRQHandler
00003c9c g     F .text	00000050 TIM_Cmd
20000440 g     O .data	00000004 SystemCoreClock
200004d8 g     O .bss	00000040 USBFS_EP1_Buf
00000004 g       .init	00000000 _einit
0000366c g     F .text	0000003c RCC_USBHSPLLCLKConfig
00003e88 g     F .text	0000002c TIM_ClearITPendingBit
0000276a g     F .text	00000022 DMA_SetCurrDataCounter
000035a4 g     F .text	00000046 RCC_APB2PeriphClockCmd
000022e4  w      .text	00000000 CAN2_SCE_IRQHandler
000022e4  w      .text	00000000 ADC1_2_IRQHandler
00002a96 g     F .text	00000222 GPIO_Init
0000424e g     F .text	0000002a SPI_Flash_Read_dma_end
000022e4  w      .text	00000000 Break_Point_Handler
2000048c g     O .bss	00000004 NVIC_Priority_Group
000022e4  w      .text	00000000 SPI1_IRQHandler
00004068 g     F .text	00000058 USART_Cmd
000022e4  w      .text	00000000 TAMPER_IRQHandler
2000044c g     O .data	00000004 MyLangDescr
00003ae2 g     F .text	000001ba TIM_OC3Init
000022e4  w      .text	00000000 CAN2_RX0_IRQHandler
00005674 g     O .text	0000003e KeyRepDesc
000022e4  w      .text	00000000 TIM8_UP_IRQHandler
000035ea g     F .text	00000046 RCC_APB1PeriphClockCmd
000022e4  w      .text	00000000 Ecall_M_Mode_Handler
00005638 g     O .text	0000003b MyCfgDescr
20007800 g       .stack	00000000 _heap_end
2000047c g     O .bss	00000008 KB_Data_Pack
00005358 g     F .text	00000084 Delay_Us
00003936 g     F .text	00000044 SPI_I2S_GetFlagStatus
000022e4  w      .text	00000000 DMA2_Channel2_IRQHandler
0000355e g     F .text	00000046 RCC_AHBPeriphClockCmd
000022e4  w      .text	00000000 DMA1_Channel4_IRQHandler
00004402 g     F .text	00000042 LCD_RESET
000056e8 g     O .text	0000000e MyManuInfo
000022e4  w      .text	00000000 TIM9_UP_IRQHandler
0000278c g     F .text	00000078 DMA_GetFlagStatus
000022e4  w      .text	00000000 USART3_IRQHandler
00002a76 g     F .text	00000020 EXTI_ClearITPendingBit
000022e4  w      .text	00000000 RTC_IRQHandler
2000045c g     O .bss	00000001 USBFS_DevConfig
200009c4 g       .bss	00000000 _ebss
00005248 g     F .text	00000042 fill_color
000022e4  w      .text	00000000 DMA1_Channel7_IRQHandler
000036a8 g     F .text	0000003c RCC_USBHSPLLCKREFCLKConfig
000022e4  w      .text	00000000 CAN1_RX1_IRQHandler
00005312 g     F .text	00000046 Delay_Init
000022e4  w      .text	00000000 DVP_IRQHandler
000022e4  w      .text	00000000 UART5_IRQHandler
00002cf2 g     F .text	00000022 GPIO_SetBits
20000458 g     O .bss	00000002 USBFS_SetupReqIndex
000022e4  w      .text	00000000 TIM4_IRQHandler
000029c8 g     F .text	00000038 EXTI_GetFlagStatus
000022e4  w      .text	00000000 DMA2_Channel1_IRQHandler
20000455 g     O .bss	00000001 USBFS_SetupReqType
000022e4  w      .text	00000000 I2C1_EV_IRQHandler
00003e1c g     F .text	0000006c TIM_GetITStatus
20000468 g     O .bss	00000008 USBFS_Endp_Busy
000031d0 g     F .text	0000038e RCC_GetClocksFreq
000022e4  w      .text	00000000 DMA1_Channel6_IRQHandler
00004fde g     F .text	00000018 WS2812_Reset
00004da8 g     F .text	0000005c SPI2_Write
000022e4  w      .text	00000000 UART4_IRQHandler
000022e4  w      .text	00000000 DMA2_Channel4_IRQHandler
00003eb4 g     F .text	000001b4 USART_Init
00002114 g     F .text	00000040 TIM3_IRQHandler
000022e4  w      .text	00000000 RCC_IRQHandler
000022e4  w      .text	00000000 TIM1_TRG_COM_IRQHandler
000022e4  w      .text	00000000 DMA1_Channel1_IRQHandler
000041c6 g     F .text	00000028 SPI_FLASH_Init
00000000 g       .init	00000000 _start
000022e4  w      .text	00000000 DMA2_Channel7_IRQHandler
20000000 g     O .data	00000010 AHBPrescTable
00002a00 g     F .text	00000020 EXTI_ClearFlag
000003c8 g     F .text	00000270 USBFS_Endp_DataUp
000022e4  w      .text	00000000 EXTI15_10_IRQHandler
00003d4c g     F .text	00000068 TIM_ITConfig
00002858 g     F .text	00000170 EXTI_Init
20000454 g     O .bss	00000001 USBFS_SetupReqCode
20000518 g     O .bss	00000040 USBFS_EP2_Buf
00003630 g     F .text	0000003c RCC_USBHSConfig
00002d14 g     F .text	00000022 GPIO_ResetBits
000022e4  w      .text	00000000 TIM7_IRQHandler
2000045f g     O .bss	00000001 USBFS_DevEnumStatus
000022e4  w      .text	00000000 CAN2_TX_IRQHandler
20000000 g       .dalign	00000000 _data_vma
000022e4  w      .text	00000000 TIM5_IRQHandler
00005460 g     F .text	00000024 memcmp
000056b4 g     O .text	00000034 MouseRepDesc
000041ee g     F .text	00000060 SPI_Flash_Read_dma_start
200001c8 g     O .data	0000013c color2
000022e4  w      .text	00000000 EXTI9_5_IRQHandler
00002f06 g     F .text	000000a2 GPIO_EXTILineConfig
2000045d g     O .bss	00000001 USBFS_DevAddr
000022e4  w      .text	00000000 ETH_WKUP_IRQHandler
00002154 g     F .text	000000e2 KB_Sleep_Wakeup_Cfg
00001990 g     F .text	000000e0 KB_Scan
00002a20 g     F .text	00000056 EXTI_GetITStatus
000022e4  w      .text	00000000 SPI2_IRQHandler
00004e04 g     F .text	00000076 SPI2_Write_DMA
00003092 g     F .text	0000013e PWR_EnterSTOPMode
00004e7a g     F .text	00000164 WS2812_Init
00004444 g     F .text	00000270 LCD_Init
00001768 g     F .text	000000ce Keyboard_IO_Init
000012c0 g     F .text	00000090 main
0000206c g     F .text	000000a8 TIM3_Init
000022e4  w      .text	00000000 TIM10_BRK_IRQHandler
20000488 g     O .bss	00000004 system_time_ms
000022e4  w      .text	00000000 TIM9_CC_IRQHandler
0000528a g     F .text	00000022 System_Init
00004b60 g     F .text	000000a0 SPI1_Read_DMA
000022e4  w      .text	00000000 DMA2_Channel5_IRQHandler
000052ac g     F .text	0000001e System_1
00003890 g     F .text	00000068 SPI_I2S_DMACmd
00004764 g     F .text	00000216 LCD_drawImageWithSize
2000045e g     O .bss	00000001 USBFS_DevSleepStatus
000022e4  w      .text	00000000 DMA1_Channel5_IRQHandler
000022e4  w      .text	00000000 EXTI4_IRQHandler
000053dc g     F .text	00000084 Delay_Ms
0000030c g     F .text	000000bc USBFS_Device_Init
000022e4  w      .text	00000000 USB_LP_CAN1_RX0_IRQHandler
000056f8 g     O .text	00000012 MyProdInfo
0000383e g     F .text	00000052 SPI_Cmd
00000288 g     F .text	00000084 USBFS_Device_Endp_Init
00001350 g     F .text	00000098 SystemInit
000022e4  w      .text	00000000 RNG_IRQHandler
000022e4  w      .text	00000000 USB_HP_CAN1_TX_IRQHandler
00000000 g       .init	00000000 _sinit
000022e4  w      .text	00000000 DMA1_Channel3_IRQHandler
000022e4  w      .text	00000000 ETH_IRQHandler
000022e4  w      .text	00000000 TIM1_UP_IRQHandler
000022e4  w      .text	00000000 WWDG_IRQHandler
000022e4  w      .text	00000000 USBHSWakeup_IRQHandler
000022e4  w      .text	00000000 DMA2_Channel11_IRQHandler
000022e4  w      .text	00000000 Ecall_U_Mode_Handler
000022e4  w      .text	00000000 DMA2_Channel6_IRQHandler
000022e4  w      .text	00000000 TIM2_IRQHandler
20008000 g       .stack	00000000 _eusrstack
000022e4  w      .text	00000000 SW_Handler
20000460 g     O .bss	00000002 USBFS_HidIdle
000022e4  w      .text	00000000 TIM1_BRK_IRQHandler
000040c0 g     F .text	0000002c USART_SendData
000022e4  w      .text	00000000 DMA2_Channel10_IRQHandler
00004cf8 g     F .text	000000b0 SPI2_DMA_Init
00000210 g     F .text	00000034 EXTI1_IRQHandler
20000498 g     O .bss	00000040 USBFS_EP0_Buf
20000450 g       .data	00000000 _edata
20000450 g     O .bss	00000004 pUSBFS_Descr
0000497a g     F .text	000000f2 SPI1_Init
200009c4 g       .bss	00000000 _end
20000484 g     O .bss	00000001 KB_LED_Cur_Status
0000397a g     F .text	00000168 TIM_TimeBaseInit
000022e4  w      .text	00000000 RTCAlarm_IRQHandler
00005724 g       .dlalign	00000000 _data_lma
000022e4  w      .text	00000000 TIM10_UP_IRQHandler
000022e4  w      .text	00000000 TIM9_TRG_COM_IRQHandler
000022e4  w      .text	00000000 UART7_IRQHandler
000022e4  w      .text	00000000 USART2_IRQHandler
000022e4  w      .text	00000000 UART6_IRQHandler
000013e8 g     F .text	000001ce SystemCoreClockUpdate
000022e4  w      .text	00000000 I2C2_ER_IRQHandler
000022e4  w      .text	00000000 DMA1_Channel2_IRQHandler
000022e4  w      .text	00000000 TIM8_BRK_IRQHandler
00002804 g     F .text	00000054 DMA_ClearFlag
000022e6  w      .text	00000000 handle_reset
000022e4  w      .text	00000000 CAN1_SCE_IRQHandler
000022e4  w      .text	00000000 FLASH_IRQHandler
000022e4  w      .text	00000000 USART1_IRQHandler
000022e4  w      .text	00000000 SPI3_IRQHandler
2000008c g     O .data	0000013c color1
0000227a g     F .text	0000006a MCU_Sleep_Wakeup_Operate
000046b4 g     F .text	000000b0 LCD_direction
000022e4  w      .text	00000000 I2C1_ER_IRQHandler
00003762 g     F .text	000000dc SPI_Init
00002fa8 g     F .text	0000001a NVIC_PriorityGroupConfig
00002370 g     F .text	00000312 DMA_DeInit
00002cb8 g     F .text	0000003a GPIO_ReadInputDataBit
20000558 g     O .bss	0000006c key_state
000052ca g     F .text	00000048 System_Loop
00004338 g     F .text	000000ca LCD_GPIOInit
000022e4  w      .text	00000000 USBWakeUp_IRQHandler
00001a70 g     F .text	000005fc KB_Scan_Handle
000022e4  w      .text	00000000 DMA2_Channel3_IRQHandler



Disassembly of section .init:

00000000 <_sinit>:
   0:	2e60206f          	j	22e6 <handle_reset>

Disassembly of section .vector:

00000004 <_vector_base>:
	...
   c:	01c0                	addi	s0,sp,196
   e:	0000                	unimp
  10:	01c8                	addi	a0,sp,196
  12:	0000                	unimp
  14:	0000                	unimp
  16:	0000                	unimp
  18:	22e4                	lbu	s1,6(a3)
	...
  22:	0000                	unimp
  24:	22e4                	lbu	s1,6(a3)
  26:	0000                	unimp
  28:	22e4                	lbu	s1,6(a3)
	...
  32:	0000                	unimp
  34:	22e4                	lbu	s1,6(a3)
  36:	0000                	unimp
  38:	0000                	unimp
  3a:	0000                	unimp
  3c:	22e4                	lbu	s1,6(a3)
  3e:	0000                	unimp
  40:	0000                	unimp
  42:	0000                	unimp
  44:	22e4                	lbu	s1,6(a3)
  46:	0000                	unimp
  48:	22e4                	lbu	s1,6(a3)
  4a:	0000                	unimp
  4c:	22e4                	lbu	s1,6(a3)
  4e:	0000                	unimp
  50:	22e4                	lbu	s1,6(a3)
  52:	0000                	unimp
  54:	22e4                	lbu	s1,6(a3)
  56:	0000                	unimp
  58:	22e4                	lbu	s1,6(a3)
  5a:	0000                	unimp
  5c:	01de                	slli	gp,gp,0x17
  5e:	0000                	unimp
  60:	0210                	addi	a2,sp,256
  62:	0000                	unimp
  64:	22e4                	lbu	s1,6(a3)
  66:	0000                	unimp
  68:	22e4                	lbu	s1,6(a3)
  6a:	0000                	unimp
  6c:	22e4                	lbu	s1,6(a3)
  6e:	0000                	unimp
  70:	22e4                	lbu	s1,6(a3)
  72:	0000                	unimp
  74:	22e4                	lbu	s1,6(a3)
  76:	0000                	unimp
  78:	22e4                	lbu	s1,6(a3)
  7a:	0000                	unimp
  7c:	22e4                	lbu	s1,6(a3)
  7e:	0000                	unimp
  80:	22e4                	lbu	s1,6(a3)
  82:	0000                	unimp
  84:	22e4                	lbu	s1,6(a3)
  86:	0000                	unimp
  88:	22e4                	lbu	s1,6(a3)
  8a:	0000                	unimp
  8c:	22e4                	lbu	s1,6(a3)
  8e:	0000                	unimp
  90:	22e4                	lbu	s1,6(a3)
  92:	0000                	unimp
  94:	22e4                	lbu	s1,6(a3)
  96:	0000                	unimp
  98:	22e4                	lbu	s1,6(a3)
  9a:	0000                	unimp
  9c:	22e4                	lbu	s1,6(a3)
  9e:	0000                	unimp
  a0:	22e4                	lbu	s1,6(a3)
  a2:	0000                	unimp
  a4:	22e4                	lbu	s1,6(a3)
  a6:	0000                	unimp
  a8:	22e4                	lbu	s1,6(a3)
  aa:	0000                	unimp
  ac:	22e4                	lbu	s1,6(a3)
  ae:	0000                	unimp
  b0:	22e4                	lbu	s1,6(a3)
  b2:	0000                	unimp
  b4:	22e4                	lbu	s1,6(a3)
  b6:	0000                	unimp
  b8:	2114                	lbu	a3,0(a0)
  ba:	0000                	unimp
  bc:	22e4                	lbu	s1,6(a3)
  be:	0000                	unimp
  c0:	22e4                	lbu	s1,6(a3)
  c2:	0000                	unimp
  c4:	22e4                	lbu	s1,6(a3)
  c6:	0000                	unimp
  c8:	22e4                	lbu	s1,6(a3)
  ca:	0000                	unimp
  cc:	22e4                	lbu	s1,6(a3)
  ce:	0000                	unimp
  d0:	22e4                	lbu	s1,6(a3)
  d2:	0000                	unimp
  d4:	22e4                	lbu	s1,6(a3)
  d6:	0000                	unimp
  d8:	22e4                	lbu	s1,6(a3)
  da:	0000                	unimp
  dc:	22e4                	lbu	s1,6(a3)
  de:	0000                	unimp
  e0:	22e4                	lbu	s1,6(a3)
  e2:	0000                	unimp
  e4:	22e4                	lbu	s1,6(a3)
  e6:	0000                	unimp
  e8:	22e4                	lbu	s1,6(a3)
  ea:	0000                	unimp
  ec:	22e4                	lbu	s1,6(a3)
  ee:	0000                	unimp
  f0:	22e4                	lbu	s1,6(a3)
  f2:	0000                	unimp
  f4:	22e4                	lbu	s1,6(a3)
  f6:	0000                	unimp
  f8:	22e4                	lbu	s1,6(a3)
  fa:	0000                	unimp
  fc:	22e4                	lbu	s1,6(a3)
  fe:	0000                	unimp
 100:	22e4                	lbu	s1,6(a3)
 102:	0000                	unimp
 104:	0000                	unimp
 106:	0000                	unimp
 108:	22e4                	lbu	s1,6(a3)
 10a:	0000                	unimp
 10c:	22e4                	lbu	s1,6(a3)
 10e:	0000                	unimp
 110:	22e4                	lbu	s1,6(a3)
 112:	0000                	unimp
 114:	22e4                	lbu	s1,6(a3)
 116:	0000                	unimp
 118:	22e4                	lbu	s1,6(a3)
 11a:	0000                	unimp
 11c:	22e4                	lbu	s1,6(a3)
 11e:	0000                	unimp
 120:	22e4                	lbu	s1,6(a3)
 122:	0000                	unimp
 124:	22e4                	lbu	s1,6(a3)
 126:	0000                	unimp
 128:	22e4                	lbu	s1,6(a3)
 12a:	0000                	unimp
 12c:	22e4                	lbu	s1,6(a3)
 12e:	0000                	unimp
 130:	22e4                	lbu	s1,6(a3)
 132:	0000                	unimp
 134:	22e4                	lbu	s1,6(a3)
 136:	0000                	unimp
 138:	22e4                	lbu	s1,6(a3)
 13a:	0000                	unimp
 13c:	22e4                	lbu	s1,6(a3)
 13e:	0000                	unimp
 140:	22e4                	lbu	s1,6(a3)
 142:	0000                	unimp
 144:	22e4                	lbu	s1,6(a3)
 146:	0000                	unimp
 148:	22e4                	lbu	s1,6(a3)
 14a:	0000                	unimp
 14c:	22e4                	lbu	s1,6(a3)
 14e:	0000                	unimp
 150:	0638                	addi	a4,sp,776
 152:	0000                	unimp
 154:	22e4                	lbu	s1,6(a3)
 156:	0000                	unimp
 158:	22e4                	lbu	s1,6(a3)
 15a:	0000                	unimp
 15c:	22e4                	lbu	s1,6(a3)
 15e:	0000                	unimp
 160:	22e4                	lbu	s1,6(a3)
 162:	0000                	unimp
 164:	22e4                	lbu	s1,6(a3)
 166:	0000                	unimp
 168:	22e4                	lbu	s1,6(a3)
 16a:	0000                	unimp
 16c:	22e4                	lbu	s1,6(a3)
 16e:	0000                	unimp
 170:	22e4                	lbu	s1,6(a3)
 172:	0000                	unimp
 174:	22e4                	lbu	s1,6(a3)
 176:	0000                	unimp
 178:	22e4                	lbu	s1,6(a3)
 17a:	0000                	unimp
 17c:	22e4                	lbu	s1,6(a3)
 17e:	0000                	unimp
 180:	22e4                	lbu	s1,6(a3)
 182:	0000                	unimp
 184:	22e4                	lbu	s1,6(a3)
 186:	0000                	unimp
 188:	22e4                	lbu	s1,6(a3)
 18a:	0000                	unimp
 18c:	22e4                	lbu	s1,6(a3)
 18e:	0000                	unimp
 190:	22e4                	lbu	s1,6(a3)
 192:	0000                	unimp
 194:	22e4                	lbu	s1,6(a3)
 196:	0000                	unimp
 198:	22e4                	lbu	s1,6(a3)
 19a:	0000                	unimp
 19c:	22e4                	lbu	s1,6(a3)
 19e:	0000                	unimp
 1a0:	22e4                	lbu	s1,6(a3)
	...

Disassembly of section .text:

000001c0 <NMI_Handler>:
     1c0:	1141                	addi	sp,sp,-16
     1c2:	c622                	sw	s0,12(sp)
     1c4:	0800                	addi	s0,sp,16
     1c6:	a001                	j	1c6 <NMI_Handler+0x6>

000001c8 <HardFault_Handler>:
     1c8:	1141                	addi	sp,sp,-16
     1ca:	c622                	sw	s0,12(sp)
     1cc:	0800                	addi	s0,sp,16
     1ce:	e000e7b7          	lui	a5,0xe000e
     1d2:	beef0737          	lui	a4,0xbeef0
     1d6:	08070713          	addi	a4,a4,128 # beef0080 <_eusrstack+0x9eee8080>
     1da:	c7b8                	sw	a4,72(a5)
     1dc:	a001                	j	1dc <HardFault_Handler+0x14>

000001de <EXTI0_IRQHandler>:
     1de:	1141                	addi	sp,sp,-16
     1e0:	c622                	sw	s0,12(sp)
     1e2:	0800                	addi	s0,sp,16
     1e4:	4505                	li	a0,1
     1e6:	03b020ef          	jal	ra,2a20 <EXTI_GetITStatus>
     1ea:	872a                	mv	a4,a0
     1ec:	4785                	li	a5,1
     1ee:	00f71c63          	bne	a4,a5,206 <EXTI0_IRQHandler+0x28>
     1f2:	4589                	li	a1,2
     1f4:	400117b7          	lui	a5,0x40011
     1f8:	c0078513          	addi	a0,a5,-1024 # 40010c00 <_eusrstack+0x20008c00>
     1fc:	2bd020ef          	jal	ra,2cb8 <GPIO_ReadInputDataBit>
     200:	4505                	li	a0,1
     202:	075020ef          	jal	ra,2a76 <EXTI_ClearITPendingBit>
     206:	0001                	nop
     208:	4432                	lw	s0,12(sp)
     20a:	0141                	addi	sp,sp,16
     20c:	30200073          	mret

00000210 <EXTI1_IRQHandler>:
     210:	1141                	addi	sp,sp,-16
     212:	c606                	sw	ra,12(sp)
     214:	c422                	sw	s0,8(sp)
     216:	0800                	addi	s0,sp,16
     218:	4509                	li	a0,2
     21a:	007020ef          	jal	ra,2a20 <EXTI_GetITStatus>
     21e:	872a                	mv	a4,a0
     220:	4785                	li	a5,1
     222:	00f71c63          	bne	a4,a5,23a <EXTI1_IRQHandler+0x2a>
     226:	4585                	li	a1,1
     228:	400117b7          	lui	a5,0x40011
     22c:	c0078513          	addi	a0,a5,-1024 # 40010c00 <_eusrstack+0x20008c00>
     230:	289020ef          	jal	ra,2cb8 <GPIO_ReadInputDataBit>
     234:	4509                	li	a0,2
     236:	041020ef          	jal	ra,2a76 <EXTI_ClearITPendingBit>
     23a:	0001                	nop
     23c:	40b2                	lw	ra,12(sp)
     23e:	4422                	lw	s0,8(sp)
     240:	0141                	addi	sp,sp,16
     242:	8082                	ret

00000244 <USBFS_RCC_Init>:
     244:	1141                	addi	sp,sp,-16
     246:	c606                	sw	ra,12(sp)
     248:	c422                	sw	s0,8(sp)
     24a:	0800                	addi	s0,sp,16
     24c:	4505                	li	a0,1
     24e:	4d6030ef          	jal	ra,3724 <RCC_USBCLK48MConfig>
     252:	4501                	li	a0,0
     254:	418030ef          	jal	ra,366c <RCC_USBHSPLLCLKConfig>
     258:	4505                	li	a0,1
     25a:	3d6030ef          	jal	ra,3630 <RCC_USBHSConfig>
     25e:	4505                	li	a0,1
     260:	448030ef          	jal	ra,36a8 <RCC_USBHSPLLCKREFCLKConfig>
     264:	4505                	li	a0,1
     266:	47e030ef          	jal	ra,36e4 <RCC_USBHSPHYPLLALIVEcmd>
     26a:	4585                	li	a1,1
     26c:	6785                	lui	a5,0x1
     26e:	80078513          	addi	a0,a5,-2048 # 800 <__stack_size>
     272:	2ec030ef          	jal	ra,355e <RCC_AHBPeriphClockCmd>
     276:	4585                	li	a1,1
     278:	6505                	lui	a0,0x1
     27a:	2e4030ef          	jal	ra,355e <RCC_AHBPeriphClockCmd>
     27e:	0001                	nop
     280:	40b2                	lw	ra,12(sp)
     282:	4422                	lw	s0,8(sp)
     284:	0141                	addi	sp,sp,16
     286:	8082                	ret

00000288 <USBFS_Device_Endp_Init>:
     288:	1101                	addi	sp,sp,-32
     28a:	ce22                	sw	s0,28(sp)
     28c:	1000                	addi	s0,sp,32
     28e:	500007b7          	lui	a5,0x50000
     292:	04000713          	li	a4,64
     296:	a7d8                	sb	a4,12(a5)
     298:	500007b7          	lui	a5,0x50000
     29c:	85818713          	addi	a4,gp,-1960 # 20000498 <USBFS_EP0_Buf>
     2a0:	cb98                	sw	a4,16(a5)
     2a2:	500007b7          	lui	a5,0x50000
     2a6:	89818713          	addi	a4,gp,-1896 # 200004d8 <USBFS_EP1_Buf>
     2aa:	cbd8                	sw	a4,20(a5)
     2ac:	500007b7          	lui	a5,0x50000
     2b0:	8d818713          	addi	a4,gp,-1832 # 20000518 <USBFS_EP2_Buf>
     2b4:	cf98                	sw	a4,24(a5)
     2b6:	500007b7          	lui	a5,0x50000
     2ba:	020789a3          	sb	zero,51(a5) # 50000033 <_eusrstack+0x2fff8033>
     2be:	500007b7          	lui	a5,0x50000
     2c2:	4709                	li	a4,2
     2c4:	02e78923          	sb	a4,50(a5) # 50000032 <_eusrstack+0x2fff8032>
     2c8:	500007b7          	lui	a5,0x50000
     2cc:	4709                	li	a4,2
     2ce:	02e78b23          	sb	a4,54(a5) # 50000036 <_eusrstack+0x2fff8036>
     2d2:	500007b7          	lui	a5,0x50000
     2d6:	4709                	li	a4,2
     2d8:	02e78d23          	sb	a4,58(a5) # 5000003a <_eusrstack+0x2fff803a>
     2dc:	fe0407a3          	sb	zero,-17(s0)
     2e0:	a829                	j	2fa <USBFS_Device_Endp_Init+0x72>
     2e2:	fef44703          	lbu	a4,-17(s0)
     2e6:	82818793          	addi	a5,gp,-2008 # 20000468 <USBFS_Endp_Busy>
     2ea:	97ba                	add	a5,a5,a4
     2ec:	00078023          	sb	zero,0(a5)
     2f0:	fef44783          	lbu	a5,-17(s0)
     2f4:	0785                	addi	a5,a5,1
     2f6:	fef407a3          	sb	a5,-17(s0)
     2fa:	fef44703          	lbu	a4,-17(s0)
     2fe:	479d                	li	a5,7
     300:	fee7f1e3          	bgeu	a5,a4,2e2 <USBFS_Device_Endp_Init+0x5a>
     304:	0001                	nop
     306:	4472                	lw	s0,28(sp)
     308:	6105                	addi	sp,sp,32
     30a:	8082                	ret

0000030c <USBFS_Device_Init>:
     30c:	7179                	addi	sp,sp,-48
     30e:	d606                	sw	ra,44(sp)
     310:	d422                	sw	s0,40(sp)
     312:	1800                	addi	s0,sp,48
     314:	fca42e23          	sw	a0,-36(s0)
     318:	fdc42783          	lw	a5,-36(s0)
     31c:	c3a5                	beqz	a5,37c <USBFS_Device_Init+0x70>
     31e:	500007b7          	lui	a5,0x50000
     322:	4719                	li	a4,6
     324:	a398                	sb	a4,0(a5)
     326:	4529                	li	a0,10
     328:	030050ef          	jal	ra,5358 <Delay_Us>
     32c:	500007b7          	lui	a5,0x50000
     330:	00078023          	sb	zero,0(a5) # 50000000 <_eusrstack+0x2fff8000>
     334:	3f91                	jal	288 <USBFS_Device_Endp_Init>
     336:	500007b7          	lui	a5,0x50000
     33a:	471d                	li	a4,7
     33c:	a3b8                	sb	a4,2(a5)
     33e:	500007b7          	lui	a5,0x50000
     342:	02900713          	li	a4,41
     346:	a398                	sb	a4,0(a5)
     348:	500007b7          	lui	a5,0x50000
     34c:	f8100713          	li	a4,-127
     350:	b398                	sb	a4,1(a5)
     352:	05300793          	li	a5,83
     356:	fef42623          	sw	a5,-20(s0)
     35a:	fec42783          	lw	a5,-20(s0)
     35e:	8bfd                	andi	a5,a5,31
     360:	4705                	li	a4,1
     362:	00f716b3          	sll	a3,a4,a5
     366:	e000e737          	lui	a4,0xe000e
     36a:	fec42783          	lw	a5,-20(s0)
     36e:	8395                	srli	a5,a5,0x5
     370:	04078793          	addi	a5,a5,64 # 50000040 <_eusrstack+0x2fff8040>
     374:	078a                	slli	a5,a5,0x2
     376:	97ba                	add	a5,a5,a4
     378:	c394                	sw	a3,0(a5)
     37a:	a091                	j	3be <USBFS_Device_Init+0xb2>
     37c:	500007b7          	lui	a5,0x50000
     380:	4719                	li	a4,6
     382:	a398                	sb	a4,0(a5)
     384:	4529                	li	a0,10
     386:	7d3040ef          	jal	ra,5358 <Delay_Us>
     38a:	500007b7          	lui	a5,0x50000
     38e:	00078023          	sb	zero,0(a5) # 50000000 <_eusrstack+0x2fff8000>
     392:	05300793          	li	a5,83
     396:	fef42423          	sw	a5,-24(s0)
     39a:	fe842783          	lw	a5,-24(s0)
     39e:	8bfd                	andi	a5,a5,31
     3a0:	4705                	li	a4,1
     3a2:	00f716b3          	sll	a3,a4,a5
     3a6:	e000e737          	lui	a4,0xe000e
     3aa:	fe842783          	lw	a5,-24(s0)
     3ae:	8395                	srli	a5,a5,0x5
     3b0:	06078793          	addi	a5,a5,96
     3b4:	078a                	slli	a5,a5,0x2
     3b6:	97ba                	add	a5,a5,a4
     3b8:	c394                	sw	a3,0(a5)
     3ba:	0000100f          	fence.i
     3be:	0001                	nop
     3c0:	50b2                	lw	ra,44(sp)
     3c2:	5422                	lw	s0,40(sp)
     3c4:	6145                	addi	sp,sp,48
     3c6:	8082                	ret

000003c8 <USBFS_Endp_DataUp>:
     3c8:	7179                	addi	sp,sp,-48
     3ca:	d606                	sw	ra,44(sp)
     3cc:	d422                	sw	s0,40(sp)
     3ce:	1800                	addi	s0,sp,48
     3d0:	87aa                	mv	a5,a0
     3d2:	fcb42c23          	sw	a1,-40(s0)
     3d6:	8736                	mv	a4,a3
     3d8:	fcf40fa3          	sb	a5,-33(s0)
     3dc:	87b2                	mv	a5,a2
     3de:	fcf41e23          	sh	a5,-36(s0)
     3e2:	87ba                	mv	a5,a4
     3e4:	fcf40f23          	sb	a5,-34(s0)
     3e8:	fdf44783          	lbu	a5,-33(s0)
     3ec:	22078d63          	beqz	a5,626 <USBFS_Endp_DataUp+0x25e>
     3f0:	fdf44703          	lbu	a4,-33(s0)
     3f4:	479d                	li	a5,7
     3f6:	22e7e863          	bltu	a5,a4,626 <USBFS_Endp_DataUp+0x25e>
     3fa:	fdf44703          	lbu	a4,-33(s0)
     3fe:	82818793          	addi	a5,gp,-2008 # 20000468 <USBFS_Endp_Busy>
     402:	97ba                	add	a5,a5,a4
     404:	239c                	lbu	a5,0(a5)
     406:	0ff7f793          	andi	a5,a5,255
     40a:	20079c63          	bnez	a5,622 <USBFS_Endp_DataUp+0x25a>
     40e:	fdf44703          	lbu	a4,-33(s0)
     412:	4785                	li	a5,1
     414:	00f70763          	beq	a4,a5,422 <USBFS_Endp_DataUp+0x5a>
     418:	fdf44703          	lbu	a4,-33(s0)
     41c:	4791                	li	a5,4
     41e:	02f71363          	bne	a4,a5,444 <USBFS_Endp_DataUp+0x7c>
     422:	500007b7          	lui	a5,0x50000
     426:	07b1                	addi	a5,a5,12
     428:	239c                	lbu	a5,0(a5)
     42a:	fef407a3          	sb	a5,-17(s0)
     42e:	fdf44703          	lbu	a4,-33(s0)
     432:	4785                	li	a5,1
     434:	08f71463          	bne	a4,a5,4bc <USBFS_Endp_DataUp+0xf4>
     438:	fef44783          	lbu	a5,-17(s0)
     43c:	8391                	srli	a5,a5,0x4
     43e:	fef407a3          	sb	a5,-17(s0)
     442:	a8ad                	j	4bc <USBFS_Endp_DataUp+0xf4>
     444:	fdf44703          	lbu	a4,-33(s0)
     448:	4789                	li	a5,2
     44a:	00f70763          	beq	a4,a5,458 <USBFS_Endp_DataUp+0x90>
     44e:	fdf44703          	lbu	a4,-33(s0)
     452:	478d                	li	a5,3
     454:	02f71363          	bne	a4,a5,47a <USBFS_Endp_DataUp+0xb2>
     458:	500007b7          	lui	a5,0x50000
     45c:	07b5                	addi	a5,a5,13
     45e:	239c                	lbu	a5,0(a5)
     460:	fef407a3          	sb	a5,-17(s0)
     464:	fdf44703          	lbu	a4,-33(s0)
     468:	478d                	li	a5,3
     46a:	04f71963          	bne	a4,a5,4bc <USBFS_Endp_DataUp+0xf4>
     46e:	fef44783          	lbu	a5,-17(s0)
     472:	8391                	srli	a5,a5,0x4
     474:	fef407a3          	sb	a5,-17(s0)
     478:	a091                	j	4bc <USBFS_Endp_DataUp+0xf4>
     47a:	fdf44703          	lbu	a4,-33(s0)
     47e:	4795                	li	a5,5
     480:	00f70763          	beq	a4,a5,48e <USBFS_Endp_DataUp+0xc6>
     484:	fdf44703          	lbu	a4,-33(s0)
     488:	4799                	li	a5,6
     48a:	02f71363          	bne	a4,a5,4b0 <USBFS_Endp_DataUp+0xe8>
     48e:	500007b7          	lui	a5,0x50000
     492:	07b9                	addi	a5,a5,14
     494:	239c                	lbu	a5,0(a5)
     496:	fef407a3          	sb	a5,-17(s0)
     49a:	fdf44703          	lbu	a4,-33(s0)
     49e:	4799                	li	a5,6
     4a0:	00f71e63          	bne	a4,a5,4bc <USBFS_Endp_DataUp+0xf4>
     4a4:	fef44783          	lbu	a5,-17(s0)
     4a8:	8391                	srli	a5,a5,0x4
     4aa:	fef407a3          	sb	a5,-17(s0)
     4ae:	a039                	j	4bc <USBFS_Endp_DataUp+0xf4>
     4b0:	500007b7          	lui	a5,0x50000
     4b4:	07bd                	addi	a5,a5,15
     4b6:	239c                	lbu	a5,0(a5)
     4b8:	fef407a3          	sb	a5,-17(s0)
     4bc:	fef44783          	lbu	a5,-17(s0)
     4c0:	8b91                	andi	a5,a5,4
     4c2:	16078463          	beqz	a5,62a <USBFS_Endp_DataUp+0x262>
     4c6:	fef44783          	lbu	a5,-17(s0)
     4ca:	8ba1                	andi	a5,a5,8
     4cc:	c3b1                	beqz	a5,510 <USBFS_Endp_DataUp+0x148>
     4ce:	fef44783          	lbu	a5,-17(s0)
     4d2:	8b85                	andi	a5,a5,1
     4d4:	cb8d                	beqz	a5,506 <USBFS_Endp_DataUp+0x13e>
     4d6:	fdf44783          	lbu	a5,-33(s0)
     4da:	00279713          	slli	a4,a5,0x2
     4de:	500007b7          	lui	a5,0x50000
     4e2:	03278793          	addi	a5,a5,50 # 50000032 <_eusrstack+0x2fff8032>
     4e6:	97ba                	add	a5,a5,a4
     4e8:	239c                	lbu	a5,0(a5)
     4ea:	0ff7f793          	andi	a5,a5,255
     4ee:	8b91                	andi	a5,a5,4
     4f0:	c791                	beqz	a5,4fc <USBFS_Endp_DataUp+0x134>
     4f2:	fc000793          	li	a5,-64
     4f6:	fef40723          	sb	a5,-18(s0)
     4fa:	a0b9                	j	548 <USBFS_Endp_DataUp+0x180>
     4fc:	f8000793          	li	a5,-128
     500:	fef40723          	sb	a5,-18(s0)
     504:	a091                	j	548 <USBFS_Endp_DataUp+0x180>
     506:	04000793          	li	a5,64
     50a:	fef40723          	sb	a5,-18(s0)
     50e:	a82d                	j	548 <USBFS_Endp_DataUp+0x180>
     510:	fef44783          	lbu	a5,-17(s0)
     514:	8b85                	andi	a5,a5,1
     516:	c79d                	beqz	a5,544 <USBFS_Endp_DataUp+0x17c>
     518:	fdf44783          	lbu	a5,-33(s0)
     51c:	00279713          	slli	a4,a5,0x2
     520:	500007b7          	lui	a5,0x50000
     524:	03278793          	addi	a5,a5,50 # 50000032 <_eusrstack+0x2fff8032>
     528:	97ba                	add	a5,a5,a4
     52a:	239c                	lbu	a5,0(a5)
     52c:	0ff7f793          	andi	a5,a5,255
     530:	8b91                	andi	a5,a5,4
     532:	c791                	beqz	a5,53e <USBFS_Endp_DataUp+0x176>
     534:	04000793          	li	a5,64
     538:	fef40723          	sb	a5,-18(s0)
     53c:	a031                	j	548 <USBFS_Endp_DataUp+0x180>
     53e:	fe040723          	sb	zero,-18(s0)
     542:	a019                	j	548 <USBFS_Endp_DataUp+0x180>
     544:	fe040723          	sb	zero,-18(s0)
     548:	fee44783          	lbu	a5,-18(s0)
     54c:	eba1                	bnez	a5,59c <USBFS_Endp_DataUp+0x1d4>
     54e:	fde44783          	lbu	a5,-34(s0)
     552:	e385                	bnez	a5,572 <USBFS_Endp_DataUp+0x1aa>
     554:	fd842783          	lw	a5,-40(s0)
     558:	01079693          	slli	a3,a5,0x10
     55c:	82c1                	srli	a3,a3,0x10
     55e:	fdf44703          	lbu	a4,-33(s0)
     562:	140007b7          	lui	a5,0x14000
     566:	0791                	addi	a5,a5,4
     568:	97ba                	add	a5,a5,a4
     56a:	078a                	slli	a5,a5,0x2
     56c:	8736                	mv	a4,a3
     56e:	c398                	sw	a4,0(a5)
     570:	a8a9                	j	5ca <USBFS_Endp_DataUp+0x202>
     572:	fdf44703          	lbu	a4,-33(s0)
     576:	140007b7          	lui	a5,0x14000
     57a:	0791                	addi	a5,a5,4
     57c:	97ba                	add	a5,a5,a4
     57e:	078a                	slli	a5,a5,0x2
     580:	4398                	lw	a4,0(a5)
     582:	200007b7          	lui	a5,0x20000
     586:	97ba                	add	a5,a5,a4
     588:	873e                	mv	a4,a5
     58a:	fdc45783          	lhu	a5,-36(s0)
     58e:	863e                	mv	a2,a5
     590:	fd842583          	lw	a1,-40(s0)
     594:	853a                	mv	a0,a4
     596:	6ef040ef          	jal	ra,5484 <memcpy>
     59a:	a805                	j	5ca <USBFS_Endp_DataUp+0x202>
     59c:	fee44703          	lbu	a4,-18(s0)
     5a0:	fdf44683          	lbu	a3,-33(s0)
     5a4:	140007b7          	lui	a5,0x14000
     5a8:	0791                	addi	a5,a5,4
     5aa:	97b6                	add	a5,a5,a3
     5ac:	078a                	slli	a5,a5,0x2
     5ae:	439c                	lw	a5,0(a5)
     5b0:	973e                	add	a4,a4,a5
     5b2:	200007b7          	lui	a5,0x20000
     5b6:	97ba                	add	a5,a5,a4
     5b8:	873e                	mv	a4,a5
     5ba:	fdc45783          	lhu	a5,-36(s0)
     5be:	863e                	mv	a2,a5
     5c0:	fd842583          	lw	a1,-40(s0)
     5c4:	853a                	mv	a0,a4
     5c6:	6bf040ef          	jal	ra,5484 <memcpy>
     5ca:	fdf44703          	lbu	a4,-33(s0)
     5ce:	82818793          	addi	a5,gp,-2008 # 20000468 <USBFS_Endp_Busy>
     5d2:	97ba                	add	a5,a5,a4
     5d4:	4705                	li	a4,1
     5d6:	a398                	sb	a4,0(a5)
     5d8:	fdf44703          	lbu	a4,-33(s0)
     5dc:	140007b7          	lui	a5,0x14000
     5e0:	07b1                	addi	a5,a5,12
     5e2:	97ba                	add	a5,a5,a4
     5e4:	078a                	slli	a5,a5,0x2
     5e6:	873e                	mv	a4,a5
     5e8:	fdc45783          	lhu	a5,-36(s0)
     5ec:	a31e                	sh	a5,0(a4)
     5ee:	fdf44783          	lbu	a5,-33(s0)
     5f2:	00279713          	slli	a4,a5,0x2
     5f6:	500007b7          	lui	a5,0x50000
     5fa:	03278793          	addi	a5,a5,50 # 50000032 <_eusrstack+0x2fff8032>
     5fe:	97ba                	add	a5,a5,a4
     600:	239c                	lbu	a5,0(a5)
     602:	0ff7f793          	andi	a5,a5,255
     606:	fdf44703          	lbu	a4,-33(s0)
     60a:	00271693          	slli	a3,a4,0x2
     60e:	50000737          	lui	a4,0x50000
     612:	03270713          	addi	a4,a4,50 # 50000032 <_eusrstack+0x2fff8032>
     616:	9736                	add	a4,a4,a3
     618:	9bf1                	andi	a5,a5,-4
     61a:	0ff7f793          	andi	a5,a5,255
     61e:	a31c                	sb	a5,0(a4)
     620:	a029                	j	62a <USBFS_Endp_DataUp+0x262>
     622:	4781                	li	a5,0
     624:	a029                	j	62e <USBFS_Endp_DataUp+0x266>
     626:	4781                	li	a5,0
     628:	a019                	j	62e <USBFS_Endp_DataUp+0x266>
     62a:	0001                	nop
     62c:	4785                	li	a5,1
     62e:	853e                	mv	a0,a5
     630:	50b2                	lw	ra,44(sp)
     632:	5422                	lw	s0,40(sp)
     634:	6145                	addi	sp,sp,48
     636:	8082                	ret

00000638 <USBFS_IRQHandler>:
     638:	1101                	addi	sp,sp,-32
     63a:	ce22                	sw	s0,28(sp)
     63c:	1000                	addi	s0,sp,32
     63e:	500007b7          	lui	a5,0x50000
     642:	23fc                	lbu	a5,6(a5)
     644:	fef405a3          	sb	a5,-21(s0)
     648:	500007b7          	lui	a5,0x50000
     64c:	33fc                	lbu	a5,7(a5)
     64e:	fef40523          	sb	a5,-22(s0)
     652:	feb44783          	lbu	a5,-21(s0)
     656:	8b89                	andi	a5,a5,2
     658:	220783e3          	beqz	a5,107e <__stack_size+0x87e>
     65c:	fea44783          	lbu	a5,-22(s0)
     660:	0307f793          	andi	a5,a5,48
     664:	4741                	li	a4,16
     666:	20e786e3          	beq	a5,a4,1072 <__stack_size+0x872>
     66a:	4741                	li	a4,16
     66c:	00f74663          	blt	a4,a5,678 <USBFS_IRQHandler+0x40>
     670:	1e078563          	beqz	a5,85a <__stack_size+0x5a>
     674:	2010006f          	j	1074 <__stack_size+0x874>
     678:	02000713          	li	a4,32
     67c:	00e78863          	beq	a5,a4,68c <USBFS_IRQHandler+0x54>
     680:	03000713          	li	a4,48
     684:	24e78d63          	beq	a5,a4,8de <__stack_size+0xde>
     688:	1ed0006f          	j	1074 <__stack_size+0x874>
     68c:	fea44783          	lbu	a5,-22(s0)
     690:	03f7f793          	andi	a5,a5,63
     694:	02100713          	li	a4,33
     698:	10e78963          	beq	a5,a4,7aa <USBFS_IRQHandler+0x172>
     69c:	02200713          	li	a4,34
     6a0:	14e78e63          	beq	a5,a4,7fc <USBFS_IRQHandler+0x1c4>
     6a4:	02000713          	li	a4,32
     6a8:	1ae79363          	bne	a5,a4,84e <__stack_size+0x4e>
     6ac:	81a1d783          	lhu	a5,-2022(gp) # 2000045a <USBFS_SetupReqLen>
     6b0:	07c2                	slli	a5,a5,0x10
     6b2:	83c1                	srli	a5,a5,0x10
     6b4:	e791                	bnez	a5,6c0 <USBFS_IRQHandler+0x88>
     6b6:	500007b7          	lui	a5,0x50000
     6ba:	4711                	li	a4,4
     6bc:	02e789a3          	sb	a4,51(a5) # 50000033 <_eusrstack+0x2fff8033>
     6c0:	8151c783          	lbu	a5,-2027(gp) # 20000455 <USBFS_SetupReqType>
     6c4:	0ff7f793          	andi	a5,a5,255
     6c8:	0607f793          	andi	a5,a5,96
     6cc:	18079463          	bnez	a5,854 <__stack_size+0x54>
     6d0:	8141c783          	lbu	a5,-2028(gp) # 20000454 <USBFS_SetupReqCode>
     6d4:	0ff7f793          	andi	a5,a5,255
     6d8:	4715                	li	a4,5
     6da:	08e78a63          	beq	a5,a4,76e <USBFS_IRQHandler+0x136>
     6de:	4719                	li	a4,6
     6e0:	0ce79363          	bne	a5,a4,7a6 <USBFS_IRQHandler+0x16e>
     6e4:	81a1d783          	lhu	a5,-2022(gp) # 2000045a <USBFS_SetupReqLen>
     6e8:	01079713          	slli	a4,a5,0x10
     6ec:	8341                	srli	a4,a4,0x10
     6ee:	03f00793          	li	a5,63
     6f2:	00e7e763          	bltu	a5,a4,700 <USBFS_IRQHandler+0xc8>
     6f6:	81a1d783          	lhu	a5,-2022(gp) # 2000045a <USBFS_SetupReqLen>
     6fa:	07c2                	slli	a5,a5,0x10
     6fc:	83c1                	srli	a5,a5,0x10
     6fe:	a019                	j	704 <USBFS_IRQHandler+0xcc>
     700:	04000793          	li	a5,64
     704:	fef41623          	sh	a5,-20(s0)
     708:	8101a783          	lw	a5,-2032(gp) # 20000450 <_edata>
     70c:	fec45703          	lhu	a4,-20(s0)
     710:	863a                	mv	a2,a4
     712:	85be                	mv	a1,a5
     714:	85818513          	addi	a0,gp,-1960 # 20000498 <USBFS_EP0_Buf>
     718:	56d040ef          	jal	ra,5484 <memcpy>
     71c:	81a1d783          	lhu	a5,-2022(gp) # 2000045a <USBFS_SetupReqLen>
     720:	01079713          	slli	a4,a5,0x10
     724:	8341                	srli	a4,a4,0x10
     726:	fec45783          	lhu	a5,-20(s0)
     72a:	40f707b3          	sub	a5,a4,a5
     72e:	01079713          	slli	a4,a5,0x10
     732:	8341                	srli	a4,a4,0x10
     734:	80e19d23          	sh	a4,-2022(gp) # 2000045a <USBFS_SetupReqLen>
     738:	8101a703          	lw	a4,-2032(gp) # 20000450 <_edata>
     73c:	fec45783          	lhu	a5,-20(s0)
     740:	973e                	add	a4,a4,a5
     742:	80e1a823          	sw	a4,-2032(gp) # 20000450 <_edata>
     746:	500007b7          	lui	a5,0x50000
     74a:	fec45703          	lhu	a4,-20(s0)
     74e:	bb9a                	sh	a4,48(a5)
     750:	500007b7          	lui	a5,0x50000
     754:	0327c783          	lbu	a5,50(a5) # 50000032 <_eusrstack+0x2fff8032>
     758:	0ff7f713          	andi	a4,a5,255
     75c:	500007b7          	lui	a5,0x50000
     760:	00474713          	xori	a4,a4,4
     764:	0ff77713          	andi	a4,a4,255
     768:	02e78923          	sb	a4,50(a5) # 50000032 <_eusrstack+0x2fff8032>
     76c:	a835                	j	7a8 <USBFS_IRQHandler+0x170>
     76e:	500007b7          	lui	a5,0x50000
     772:	33bc                	lbu	a5,3(a5)
     774:	0ff7f793          	andi	a5,a5,255
     778:	07e2                	slli	a5,a5,0x18
     77a:	87e1                	srai	a5,a5,0x18
     77c:	f807f793          	andi	a5,a5,-128
     780:	01879713          	slli	a4,a5,0x18
     784:	8761                	srai	a4,a4,0x18
     786:	81d1c783          	lbu	a5,-2019(gp) # 2000045d <USBFS_DevAddr>
     78a:	0ff7f793          	andi	a5,a5,255
     78e:	07e2                	slli	a5,a5,0x18
     790:	87e1                	srai	a5,a5,0x18
     792:	8fd9                	or	a5,a5,a4
     794:	01879713          	slli	a4,a5,0x18
     798:	8761                	srai	a4,a4,0x18
     79a:	500007b7          	lui	a5,0x50000
     79e:	0ff77713          	andi	a4,a4,255
     7a2:	b3b8                	sb	a4,3(a5)
     7a4:	a011                	j	7a8 <USBFS_IRQHandler+0x170>
     7a6:	0001                	nop
     7a8:	a075                	j	854 <__stack_size+0x54>
     7aa:	500007b7          	lui	a5,0x50000
     7ae:	0367c783          	lbu	a5,54(a5) # 50000036 <_eusrstack+0x2fff8036>
     7b2:	0ff7f793          	andi	a5,a5,255
     7b6:	07e2                	slli	a5,a5,0x18
     7b8:	87e1                	srai	a5,a5,0x18
     7ba:	9bf1                	andi	a5,a5,-4
     7bc:	07e2                	slli	a5,a5,0x18
     7be:	87e1                	srai	a5,a5,0x18
     7c0:	0027e793          	ori	a5,a5,2
     7c4:	01879713          	slli	a4,a5,0x18
     7c8:	8761                	srai	a4,a4,0x18
     7ca:	500007b7          	lui	a5,0x50000
     7ce:	0ff77713          	andi	a4,a4,255
     7d2:	02e78b23          	sb	a4,54(a5) # 50000036 <_eusrstack+0x2fff8036>
     7d6:	500007b7          	lui	a5,0x50000
     7da:	0367c783          	lbu	a5,54(a5) # 50000036 <_eusrstack+0x2fff8036>
     7de:	0ff7f713          	andi	a4,a5,255
     7e2:	500007b7          	lui	a5,0x50000
     7e6:	00474713          	xori	a4,a4,4
     7ea:	0ff77713          	andi	a4,a4,255
     7ee:	02e78b23          	sb	a4,54(a5) # 50000036 <_eusrstack+0x2fff8036>
     7f2:	82818793          	addi	a5,gp,-2008 # 20000468 <USBFS_Endp_Busy>
     7f6:	000780a3          	sb	zero,1(a5)
     7fa:	a8b1                	j	856 <__stack_size+0x56>
     7fc:	500007b7          	lui	a5,0x50000
     800:	03a7c783          	lbu	a5,58(a5) # 5000003a <_eusrstack+0x2fff803a>
     804:	0ff7f793          	andi	a5,a5,255
     808:	07e2                	slli	a5,a5,0x18
     80a:	87e1                	srai	a5,a5,0x18
     80c:	9bf1                	andi	a5,a5,-4
     80e:	07e2                	slli	a5,a5,0x18
     810:	87e1                	srai	a5,a5,0x18
     812:	0027e793          	ori	a5,a5,2
     816:	01879713          	slli	a4,a5,0x18
     81a:	8761                	srai	a4,a4,0x18
     81c:	500007b7          	lui	a5,0x50000
     820:	0ff77713          	andi	a4,a4,255
     824:	02e78d23          	sb	a4,58(a5) # 5000003a <_eusrstack+0x2fff803a>
     828:	500007b7          	lui	a5,0x50000
     82c:	03a7c783          	lbu	a5,58(a5) # 5000003a <_eusrstack+0x2fff803a>
     830:	0ff7f713          	andi	a4,a5,255
     834:	500007b7          	lui	a5,0x50000
     838:	00474713          	xori	a4,a4,4
     83c:	0ff77713          	andi	a4,a4,255
     840:	02e78d23          	sb	a4,58(a5) # 5000003a <_eusrstack+0x2fff803a>
     844:	82818793          	addi	a5,gp,-2008 # 20000468 <USBFS_Endp_Busy>
     848:	00078123          	sb	zero,2(a5)
     84c:	a029                	j	856 <__stack_size+0x56>
     84e:	0001                	nop
     850:	0250006f          	j	1074 <__stack_size+0x874>
     854:	0001                	nop
     856:	01f0006f          	j	1074 <__stack_size+0x874>
     85a:	fea44783          	lbu	a5,-22(s0)
     85e:	03f7f793          	andi	a5,a5,63
     862:	eba5                	bnez	a5,8d2 <__stack_size+0xd2>
     864:	fea44783          	lbu	a5,-22(s0)
     868:	0407f793          	andi	a5,a5,64
     86c:	c7a1                	beqz	a5,8b4 <__stack_size+0xb4>
     86e:	8151c783          	lbu	a5,-2027(gp) # 20000455 <USBFS_SetupReqType>
     872:	0ff7f793          	andi	a5,a5,255
     876:	0607f793          	andi	a5,a5,96
     87a:	cf8d                	beqz	a5,8b4 <__stack_size+0xb4>
     87c:	8151c783          	lbu	a5,-2027(gp) # 20000455 <USBFS_SetupReqType>
     880:	0ff7f793          	andi	a5,a5,255
     884:	0607f713          	andi	a4,a5,96
     888:	02000793          	li	a5,32
     88c:	02f71163          	bne	a4,a5,8ae <__stack_size+0xae>
     890:	8141c783          	lbu	a5,-2028(gp) # 20000454 <USBFS_SetupReqCode>
     894:	0ff7f793          	andi	a5,a5,255
     898:	873e                	mv	a4,a5
     89a:	47a5                	li	a5,9
     89c:	00f71b63          	bne	a4,a5,8b2 <__stack_size+0xb2>
     8a0:	8581c703          	lbu	a4,-1960(gp) # 20000498 <USBFS_EP0_Buf>
     8a4:	84e18223          	sb	a4,-1980(gp) # 20000484 <KB_LED_Cur_Status>
     8a8:	80019d23          	sh	zero,-2022(gp) # 2000045a <USBFS_SetupReqLen>
     8ac:	a021                	j	8b4 <__stack_size+0xb4>
     8ae:	0001                	nop
     8b0:	a011                	j	8b4 <__stack_size+0xb4>
     8b2:	0001                	nop
     8b4:	81a1d783          	lhu	a5,-2022(gp) # 2000045a <USBFS_SetupReqLen>
     8b8:	07c2                	slli	a5,a5,0x10
     8ba:	83c1                	srli	a5,a5,0x10
     8bc:	ef91                	bnez	a5,8d8 <__stack_size+0xd8>
     8be:	500007b7          	lui	a5,0x50000
     8c2:	02079823          	sh	zero,48(a5) # 50000030 <_eusrstack+0x2fff8030>
     8c6:	500007b7          	lui	a5,0x50000
     8ca:	4711                	li	a4,4
     8cc:	02e78923          	sb	a4,50(a5) # 50000032 <_eusrstack+0x2fff8032>
     8d0:	a021                	j	8d8 <__stack_size+0xd8>
     8d2:	0001                	nop
     8d4:	7a00006f          	j	1074 <__stack_size+0x874>
     8d8:	0001                	nop
     8da:	79a0006f          	j	1074 <__stack_size+0x874>
     8de:	500007b7          	lui	a5,0x50000
     8e2:	4719                	li	a4,6
     8e4:	02e78923          	sb	a4,50(a5) # 50000032 <_eusrstack+0x2fff8032>
     8e8:	500007b7          	lui	a5,0x50000
     8ec:	4719                	li	a4,6
     8ee:	02e789a3          	sb	a4,51(a5) # 50000033 <_eusrstack+0x2fff8033>
     8f2:	85818793          	addi	a5,gp,-1960 # 20000498 <USBFS_EP0_Buf>
     8f6:	2398                	lbu	a4,0(a5)
     8f8:	80e18aa3          	sb	a4,-2027(gp) # 20000455 <USBFS_SetupReqType>
     8fc:	85818793          	addi	a5,gp,-1960 # 20000498 <USBFS_EP0_Buf>
     900:	3398                	lbu	a4,1(a5)
     902:	80e18a23          	sb	a4,-2028(gp) # 20000454 <USBFS_SetupReqCode>
     906:	85818793          	addi	a5,gp,-1960 # 20000498 <USBFS_EP0_Buf>
     90a:	23f8                	lbu	a4,6(a5)
     90c:	33fc                	lbu	a5,7(a5)
     90e:	07a2                	slli	a5,a5,0x8
     910:	8fd9                	or	a5,a5,a4
     912:	01079713          	slli	a4,a5,0x10
     916:	8341                	srli	a4,a4,0x10
     918:	80e19d23          	sh	a4,-2022(gp) # 2000045a <USBFS_SetupReqLen>
     91c:	85818793          	addi	a5,gp,-1960 # 20000498 <USBFS_EP0_Buf>
     920:	23b8                	lbu	a4,2(a5)
     922:	33bc                	lbu	a5,3(a5)
     924:	07a2                	slli	a5,a5,0x8
     926:	8fd9                	or	a5,a5,a4
     928:	01079713          	slli	a4,a5,0x10
     92c:	8341                	srli	a4,a4,0x10
     92e:	80e19b23          	sh	a4,-2026(gp) # 20000456 <USBFS_SetupReqValue>
     932:	85818793          	addi	a5,gp,-1960 # 20000498 <USBFS_EP0_Buf>
     936:	23d8                	lbu	a4,4(a5)
     938:	33dc                	lbu	a5,5(a5)
     93a:	07a2                	slli	a5,a5,0x8
     93c:	8fd9                	or	a5,a5,a4
     93e:	01079713          	slli	a4,a5,0x10
     942:	8341                	srli	a4,a4,0x10
     944:	80e19c23          	sh	a4,-2024(gp) # 20000458 <USBFS_SetupReqIndex>
     948:	fe041623          	sh	zero,-20(s0)
     94c:	fe0407a3          	sb	zero,-17(s0)
     950:	8151c783          	lbu	a5,-2027(gp) # 20000455 <USBFS_SetupReqType>
     954:	0ff7f793          	andi	a5,a5,255
     958:	0607f793          	andi	a5,a5,96
     95c:	16078a63          	beqz	a5,ad0 <__stack_size+0x2d0>
     960:	8151c783          	lbu	a5,-2027(gp) # 20000455 <USBFS_SetupReqType>
     964:	0ff7f793          	andi	a5,a5,255
     968:	0607f713          	andi	a4,a5,96
     96c:	02000793          	li	a5,32
     970:	62f71b63          	bne	a4,a5,fa6 <__stack_size+0x7a6>
     974:	8141c783          	lbu	a5,-2028(gp) # 20000454 <USBFS_SetupReqCode>
     978:	0ff7f793          	andi	a5,a5,255
     97c:	472d                	li	a4,11
     97e:	14f76463          	bltu	a4,a5,ac6 <__stack_size+0x2c6>
     982:	00279713          	slli	a4,a5,0x2
     986:	6795                	lui	a5,0x5
     988:	53878793          	addi	a5,a5,1336 # 5538 <memcpy+0xb4>
     98c:	97ba                	add	a5,a5,a4
     98e:	439c                	lw	a5,0(a5)
     990:	8782                	jr	a5
     992:	8181d783          	lhu	a5,-2024(gp) # 20000458 <USBFS_SetupReqIndex>
     996:	07c2                	slli	a5,a5,0x10
     998:	83c1                	srli	a5,a5,0x10
     99a:	ef89                	bnez	a5,9b4 <__stack_size+0x1b4>
     99c:	8161d783          	lhu	a5,-2026(gp) # 20000456 <USBFS_SetupReqValue>
     9a0:	07c2                	slli	a5,a5,0x10
     9a2:	83c1                	srli	a5,a5,0x10
     9a4:	83a1                	srli	a5,a5,0x8
     9a6:	07c2                	slli	a5,a5,0x10
     9a8:	83c1                	srli	a5,a5,0x10
     9aa:	0ff7f713          	andi	a4,a5,255
     9ae:	82e18023          	sb	a4,-2016(gp) # 20000460 <USBFS_HidIdle>
     9b2:	a539                	j	fc0 <__stack_size+0x7c0>
     9b4:	8181d783          	lhu	a5,-2024(gp) # 20000458 <USBFS_SetupReqIndex>
     9b8:	01079713          	slli	a4,a5,0x10
     9bc:	8341                	srli	a4,a4,0x10
     9be:	4785                	li	a5,1
     9c0:	00f71f63          	bne	a4,a5,9de <__stack_size+0x1de>
     9c4:	8161d783          	lhu	a5,-2026(gp) # 20000456 <USBFS_SetupReqValue>
     9c8:	07c2                	slli	a5,a5,0x10
     9ca:	83c1                	srli	a5,a5,0x10
     9cc:	83a1                	srli	a5,a5,0x8
     9ce:	07c2                	slli	a5,a5,0x10
     9d0:	83c1                	srli	a5,a5,0x10
     9d2:	0ff7f713          	andi	a4,a5,255
     9d6:	82018793          	addi	a5,gp,-2016 # 20000460 <USBFS_HidIdle>
     9da:	b398                	sb	a4,1(a5)
     9dc:	a3d5                	j	fc0 <__stack_size+0x7c0>
     9de:	57fd                	li	a5,-1
     9e0:	fef407a3          	sb	a5,-17(s0)
     9e4:	abf1                	j	fc0 <__stack_size+0x7c0>
     9e6:	8181d783          	lhu	a5,-2024(gp) # 20000458 <USBFS_SetupReqIndex>
     9ea:	07c2                	slli	a5,a5,0x10
     9ec:	83c1                	srli	a5,a5,0x10
     9ee:	eb91                	bnez	a5,a02 <__stack_size+0x202>
     9f0:	8161d783          	lhu	a5,-2026(gp) # 20000456 <USBFS_SetupReqValue>
     9f4:	07c2                	slli	a5,a5,0x10
     9f6:	83c1                	srli	a5,a5,0x10
     9f8:	0ff7f713          	andi	a4,a5,255
     9fc:	82e18223          	sb	a4,-2012(gp) # 20000464 <USBFS_HidProtocol>
     a00:	a3c1                	j	fc0 <__stack_size+0x7c0>
     a02:	8181d783          	lhu	a5,-2024(gp) # 20000458 <USBFS_SetupReqIndex>
     a06:	01079713          	slli	a4,a5,0x10
     a0a:	8341                	srli	a4,a4,0x10
     a0c:	4785                	li	a5,1
     a0e:	00f71c63          	bne	a4,a5,a26 <__stack_size+0x226>
     a12:	8161d783          	lhu	a5,-2026(gp) # 20000456 <USBFS_SetupReqValue>
     a16:	07c2                	slli	a5,a5,0x10
     a18:	83c1                	srli	a5,a5,0x10
     a1a:	0ff7f713          	andi	a4,a5,255
     a1e:	82418793          	addi	a5,gp,-2012 # 20000464 <USBFS_HidProtocol>
     a22:	b398                	sb	a4,1(a5)
     a24:	ab71                	j	fc0 <__stack_size+0x7c0>
     a26:	57fd                	li	a5,-1
     a28:	fef407a3          	sb	a5,-17(s0)
     a2c:	ab51                	j	fc0 <__stack_size+0x7c0>
     a2e:	8181d783          	lhu	a5,-2024(gp) # 20000458 <USBFS_SetupReqIndex>
     a32:	07c2                	slli	a5,a5,0x10
     a34:	83c1                	srli	a5,a5,0x10
     a36:	eb99                	bnez	a5,a4c <__stack_size+0x24c>
     a38:	8201c783          	lbu	a5,-2016(gp) # 20000460 <USBFS_HidIdle>
     a3c:	0ff7f713          	andi	a4,a5,255
     a40:	84e18c23          	sb	a4,-1960(gp) # 20000498 <USBFS_EP0_Buf>
     a44:	4785                	li	a5,1
     a46:	fef41623          	sh	a5,-20(s0)
     a4a:	ab9d                	j	fc0 <__stack_size+0x7c0>
     a4c:	8181d783          	lhu	a5,-2024(gp) # 20000458 <USBFS_SetupReqIndex>
     a50:	01079713          	slli	a4,a5,0x10
     a54:	8341                	srli	a4,a4,0x10
     a56:	4785                	li	a5,1
     a58:	00f71d63          	bne	a4,a5,a72 <__stack_size+0x272>
     a5c:	82018793          	addi	a5,gp,-2016 # 20000460 <USBFS_HidIdle>
     a60:	339c                	lbu	a5,1(a5)
     a62:	0ff7f713          	andi	a4,a5,255
     a66:	84e18c23          	sb	a4,-1960(gp) # 20000498 <USBFS_EP0_Buf>
     a6a:	4785                	li	a5,1
     a6c:	fef41623          	sh	a5,-20(s0)
     a70:	ab81                	j	fc0 <__stack_size+0x7c0>
     a72:	57fd                	li	a5,-1
     a74:	fef407a3          	sb	a5,-17(s0)
     a78:	a3a1                	j	fc0 <__stack_size+0x7c0>
     a7a:	8181d783          	lhu	a5,-2024(gp) # 20000458 <USBFS_SetupReqIndex>
     a7e:	07c2                	slli	a5,a5,0x10
     a80:	83c1                	srli	a5,a5,0x10
     a82:	eb99                	bnez	a5,a98 <__stack_size+0x298>
     a84:	8241c783          	lbu	a5,-2012(gp) # 20000464 <USBFS_HidProtocol>
     a88:	0ff7f713          	andi	a4,a5,255
     a8c:	84e18c23          	sb	a4,-1960(gp) # 20000498 <USBFS_EP0_Buf>
     a90:	4785                	li	a5,1
     a92:	fef41623          	sh	a5,-20(s0)
     a96:	a32d                	j	fc0 <__stack_size+0x7c0>
     a98:	8181d783          	lhu	a5,-2024(gp) # 20000458 <USBFS_SetupReqIndex>
     a9c:	01079713          	slli	a4,a5,0x10
     aa0:	8341                	srli	a4,a4,0x10
     aa2:	4785                	li	a5,1
     aa4:	00f71d63          	bne	a4,a5,abe <__stack_size+0x2be>
     aa8:	82418793          	addi	a5,gp,-2012 # 20000464 <USBFS_HidProtocol>
     aac:	339c                	lbu	a5,1(a5)
     aae:	0ff7f713          	andi	a4,a5,255
     ab2:	84e18c23          	sb	a4,-1960(gp) # 20000498 <USBFS_EP0_Buf>
     ab6:	4785                	li	a5,1
     ab8:	fef41623          	sh	a5,-20(s0)
     abc:	a311                	j	fc0 <__stack_size+0x7c0>
     abe:	57fd                	li	a5,-1
     ac0:	fef407a3          	sb	a5,-17(s0)
     ac4:	a9f5                	j	fc0 <__stack_size+0x7c0>
     ac6:	57fd                	li	a5,-1
     ac8:	fef407a3          	sb	a5,-17(s0)
     acc:	0001                	nop
     ace:	a9cd                	j	fc0 <__stack_size+0x7c0>
     ad0:	8141c783          	lbu	a5,-2028(gp) # 20000454 <USBFS_SetupReqCode>
     ad4:	0ff7f793          	andi	a5,a5,255
     ad8:	472d                	li	a4,11
     ada:	4cf76263          	bltu	a4,a5,f9e <__stack_size+0x79e>
     ade:	00279713          	slli	a4,a5,0x2
     ae2:	6795                	lui	a5,0x5
     ae4:	56878793          	addi	a5,a5,1384 # 5568 <memcpy+0xe4>
     ae8:	97ba                	add	a5,a5,a4
     aea:	439c                	lw	a5,0(a5)
     aec:	8782                	jr	a5
     aee:	8161d783          	lhu	a5,-2026(gp) # 20000456 <USBFS_SetupReqValue>
     af2:	07c2                	slli	a5,a5,0x10
     af4:	83c1                	srli	a5,a5,0x10
     af6:	83a1                	srli	a5,a5,0x8
     af8:	07c2                	slli	a5,a5,0x10
     afa:	83c1                	srli	a5,a5,0x10
     afc:	0ff7f793          	andi	a5,a5,255
     b00:	02200713          	li	a4,34
     b04:	16f76a63          	bltu	a4,a5,c78 <__stack_size+0x478>
     b08:	00279713          	slli	a4,a5,0x2
     b0c:	6795                	lui	a5,0x5
     b0e:	59878793          	addi	a5,a5,1432 # 5598 <memcpy+0x114>
     b12:	97ba                	add	a5,a5,a4
     b14:	439c                	lw	a5,0(a5)
     b16:	8782                	jr	a5
     b18:	6715                	lui	a4,0x5
     b1a:	62470713          	addi	a4,a4,1572 # 5624 <MyDevDescr>
     b1e:	80e1a823          	sw	a4,-2032(gp) # 20000450 <_edata>
     b22:	6795                	lui	a5,0x5
     b24:	6247c783          	lbu	a5,1572(a5) # 5624 <MyDevDescr>
     b28:	fef41623          	sh	a5,-20(s0)
     b2c:	aa91                	j	c80 <__stack_size+0x480>
     b2e:	6715                	lui	a4,0x5
     b30:	63870713          	addi	a4,a4,1592 # 5638 <MyCfgDescr>
     b34:	80e1a823          	sw	a4,-2032(gp) # 20000450 <_edata>
     b38:	6795                	lui	a5,0x5
     b3a:	63878793          	addi	a5,a5,1592 # 5638 <MyCfgDescr>
     b3e:	23bc                	lbu	a5,2(a5)
     b40:	01079713          	slli	a4,a5,0x10
     b44:	8341                	srli	a4,a4,0x10
     b46:	6795                	lui	a5,0x5
     b48:	63878793          	addi	a5,a5,1592 # 5638 <MyCfgDescr>
     b4c:	33bc                	lbu	a5,3(a5)
     b4e:	07c2                	slli	a5,a5,0x10
     b50:	83c1                	srli	a5,a5,0x10
     b52:	07a2                	slli	a5,a5,0x8
     b54:	07c2                	slli	a5,a5,0x10
     b56:	83c1                	srli	a5,a5,0x10
     b58:	97ba                	add	a5,a5,a4
     b5a:	fef41623          	sh	a5,-20(s0)
     b5e:	a20d                	j	c80 <__stack_size+0x480>
     b60:	8181d783          	lhu	a5,-2024(gp) # 20000458 <USBFS_SetupReqIndex>
     b64:	07c2                	slli	a5,a5,0x10
     b66:	83c1                	srli	a5,a5,0x10
     b68:	eb91                	bnez	a5,b7c <__stack_size+0x37c>
     b6a:	6715                	lui	a4,0x5
     b6c:	64a70713          	addi	a4,a4,1610 # 564a <MyCfgDescr+0x12>
     b70:	80e1a823          	sw	a4,-2032(gp) # 20000450 <_edata>
     b74:	47a5                	li	a5,9
     b76:	fef41623          	sh	a5,-20(s0)
     b7a:	a219                	j	c80 <__stack_size+0x480>
     b7c:	8181d783          	lhu	a5,-2024(gp) # 20000458 <USBFS_SetupReqIndex>
     b80:	01079713          	slli	a4,a5,0x10
     b84:	8341                	srli	a4,a4,0x10
     b86:	4785                	li	a5,1
     b88:	00f71b63          	bne	a4,a5,b9e <__stack_size+0x39e>
     b8c:	6715                	lui	a4,0x5
     b8e:	66370713          	addi	a4,a4,1635 # 5663 <MyCfgDescr+0x2b>
     b92:	80e1a823          	sw	a4,-2032(gp) # 20000450 <_edata>
     b96:	47a5                	li	a5,9
     b98:	fef41623          	sh	a5,-20(s0)
     b9c:	a0d5                	j	c80 <__stack_size+0x480>
     b9e:	57fd                	li	a5,-1
     ba0:	fef407a3          	sb	a5,-17(s0)
     ba4:	a8f1                	j	c80 <__stack_size+0x480>
     ba6:	8181d783          	lhu	a5,-2024(gp) # 20000458 <USBFS_SetupReqIndex>
     baa:	07c2                	slli	a5,a5,0x10
     bac:	83c1                	srli	a5,a5,0x10
     bae:	eb99                	bnez	a5,bc4 <__stack_size+0x3c4>
     bb0:	6715                	lui	a4,0x5
     bb2:	67470713          	addi	a4,a4,1652 # 5674 <KeyRepDesc>
     bb6:	80e1a823          	sw	a4,-2032(gp) # 20000450 <_edata>
     bba:	03e00793          	li	a5,62
     bbe:	fef41623          	sh	a5,-20(s0)
     bc2:	a87d                	j	c80 <__stack_size+0x480>
     bc4:	8181d783          	lhu	a5,-2024(gp) # 20000458 <USBFS_SetupReqIndex>
     bc8:	01079713          	slli	a4,a5,0x10
     bcc:	8341                	srli	a4,a4,0x10
     bce:	4785                	li	a5,1
     bd0:	00f71c63          	bne	a4,a5,be8 <__stack_size+0x3e8>
     bd4:	6715                	lui	a4,0x5
     bd6:	6b470713          	addi	a4,a4,1716 # 56b4 <MouseRepDesc>
     bda:	80e1a823          	sw	a4,-2032(gp) # 20000450 <_edata>
     bde:	03400793          	li	a5,52
     be2:	fef41623          	sh	a5,-20(s0)
     be6:	a869                	j	c80 <__stack_size+0x480>
     be8:	57fd                	li	a5,-1
     bea:	fef407a3          	sb	a5,-17(s0)
     bee:	a849                	j	c80 <__stack_size+0x480>
     bf0:	8161d783          	lhu	a5,-2026(gp) # 20000456 <USBFS_SetupReqValue>
     bf4:	07c2                	slli	a5,a5,0x10
     bf6:	83c1                	srli	a5,a5,0x10
     bf8:	0ff7f793          	andi	a5,a5,255
     bfc:	4705                	li	a4,1
     bfe:	02e78763          	beq	a5,a4,c2c <__stack_size+0x42c>
     c02:	4705                	li	a4,1
     c04:	00f74463          	blt	a4,a5,c0c <__stack_size+0x40c>
     c08:	cb89                	beqz	a5,c1a <__stack_size+0x41a>
     c0a:	a095                	j	c6e <__stack_size+0x46e>
     c0c:	4709                	li	a4,2
     c0e:	02e78a63          	beq	a5,a4,c42 <__stack_size+0x442>
     c12:	470d                	li	a4,3
     c14:	04e78263          	beq	a5,a4,c58 <__stack_size+0x458>
     c18:	a899                	j	c6e <__stack_size+0x46e>
     c1a:	80c18713          	addi	a4,gp,-2036 # 2000044c <MyLangDescr>
     c1e:	80e1a823          	sw	a4,-2032(gp) # 20000450 <_edata>
     c22:	80c1c783          	lbu	a5,-2036(gp) # 2000044c <MyLangDescr>
     c26:	fef41623          	sh	a5,-20(s0)
     c2a:	a0b1                	j	c76 <__stack_size+0x476>
     c2c:	6715                	lui	a4,0x5
     c2e:	6e870713          	addi	a4,a4,1768 # 56e8 <MyManuInfo>
     c32:	80e1a823          	sw	a4,-2032(gp) # 20000450 <_edata>
     c36:	6795                	lui	a5,0x5
     c38:	6e87c783          	lbu	a5,1768(a5) # 56e8 <MyManuInfo>
     c3c:	fef41623          	sh	a5,-20(s0)
     c40:	a81d                	j	c76 <__stack_size+0x476>
     c42:	6715                	lui	a4,0x5
     c44:	6f870713          	addi	a4,a4,1784 # 56f8 <MyProdInfo>
     c48:	80e1a823          	sw	a4,-2032(gp) # 20000450 <_edata>
     c4c:	6795                	lui	a5,0x5
     c4e:	6f87c783          	lbu	a5,1784(a5) # 56f8 <MyProdInfo>
     c52:	fef41623          	sh	a5,-20(s0)
     c56:	a005                	j	c76 <__stack_size+0x476>
     c58:	6715                	lui	a4,0x5
     c5a:	70c70713          	addi	a4,a4,1804 # 570c <MySerNumInfo>
     c5e:	80e1a823          	sw	a4,-2032(gp) # 20000450 <_edata>
     c62:	6795                	lui	a5,0x5
     c64:	70c7c783          	lbu	a5,1804(a5) # 570c <MySerNumInfo>
     c68:	fef41623          	sh	a5,-20(s0)
     c6c:	a029                	j	c76 <__stack_size+0x476>
     c6e:	57fd                	li	a5,-1
     c70:	fef407a3          	sb	a5,-17(s0)
     c74:	0001                	nop
     c76:	a029                	j	c80 <__stack_size+0x480>
     c78:	57fd                	li	a5,-1
     c7a:	fef407a3          	sb	a5,-17(s0)
     c7e:	0001                	nop
     c80:	81a1d783          	lhu	a5,-2022(gp) # 2000045a <USBFS_SetupReqLen>
     c84:	07c2                	slli	a5,a5,0x10
     c86:	83c1                	srli	a5,a5,0x10
     c88:	fec45703          	lhu	a4,-20(s0)
     c8c:	00f77663          	bgeu	a4,a5,c98 <__stack_size+0x498>
     c90:	fec45703          	lhu	a4,-20(s0)
     c94:	80e19d23          	sh	a4,-2022(gp) # 2000045a <USBFS_SetupReqLen>
     c98:	81a1d783          	lhu	a5,-2022(gp) # 2000045a <USBFS_SetupReqLen>
     c9c:	01079713          	slli	a4,a5,0x10
     ca0:	8341                	srli	a4,a4,0x10
     ca2:	03f00793          	li	a5,63
     ca6:	00e7e763          	bltu	a5,a4,cb4 <__stack_size+0x4b4>
     caa:	81a1d783          	lhu	a5,-2022(gp) # 2000045a <USBFS_SetupReqLen>
     cae:	07c2                	slli	a5,a5,0x10
     cb0:	83c1                	srli	a5,a5,0x10
     cb2:	a019                	j	cb8 <__stack_size+0x4b8>
     cb4:	04000793          	li	a5,64
     cb8:	fef41623          	sh	a5,-20(s0)
     cbc:	8101a783          	lw	a5,-2032(gp) # 20000450 <_edata>
     cc0:	fec45703          	lhu	a4,-20(s0)
     cc4:	863a                	mv	a2,a4
     cc6:	85be                	mv	a1,a5
     cc8:	85818513          	addi	a0,gp,-1960 # 20000498 <USBFS_EP0_Buf>
     ccc:	7b8040ef          	jal	ra,5484 <memcpy>
     cd0:	8101a703          	lw	a4,-2032(gp) # 20000450 <_edata>
     cd4:	fec45783          	lhu	a5,-20(s0)
     cd8:	973e                	add	a4,a4,a5
     cda:	80e1a823          	sw	a4,-2032(gp) # 20000450 <_edata>
     cde:	a4cd                	j	fc0 <__stack_size+0x7c0>
     ce0:	8161d783          	lhu	a5,-2026(gp) # 20000456 <USBFS_SetupReqValue>
     ce4:	07c2                	slli	a5,a5,0x10
     ce6:	83c1                	srli	a5,a5,0x10
     ce8:	0ff7f713          	andi	a4,a5,255
     cec:	80e18ea3          	sb	a4,-2019(gp) # 2000045d <USBFS_DevAddr>
     cf0:	acc1                	j	fc0 <__stack_size+0x7c0>
     cf2:	81c1c783          	lbu	a5,-2020(gp) # 2000045c <USBFS_DevConfig>
     cf6:	0ff7f713          	andi	a4,a5,255
     cfa:	84e18c23          	sb	a4,-1960(gp) # 20000498 <USBFS_EP0_Buf>
     cfe:	81a1d783          	lhu	a5,-2022(gp) # 2000045a <USBFS_SetupReqLen>
     d02:	01079713          	slli	a4,a5,0x10
     d06:	8341                	srli	a4,a4,0x10
     d08:	4785                	li	a5,1
     d0a:	2ae7f463          	bgeu	a5,a4,fb2 <__stack_size+0x7b2>
     d0e:	4705                	li	a4,1
     d10:	80e19d23          	sh	a4,-2022(gp) # 2000045a <USBFS_SetupReqLen>
     d14:	ac79                	j	fb2 <__stack_size+0x7b2>
     d16:	8161d783          	lhu	a5,-2026(gp) # 20000456 <USBFS_SetupReqValue>
     d1a:	07c2                	slli	a5,a5,0x10
     d1c:	83c1                	srli	a5,a5,0x10
     d1e:	0ff7f713          	andi	a4,a5,255
     d22:	80e18e23          	sb	a4,-2020(gp) # 2000045c <USBFS_DevConfig>
     d26:	4705                	li	a4,1
     d28:	80e18fa3          	sb	a4,-2017(gp) # 2000045f <USBFS_DevEnumStatus>
     d2c:	ac51                	j	fc0 <__stack_size+0x7c0>
     d2e:	8151c783          	lbu	a5,-2027(gp) # 20000455 <USBFS_SetupReqType>
     d32:	0ff7f793          	andi	a5,a5,255
     d36:	8bfd                	andi	a5,a5,31
     d38:	e785                	bnez	a5,d60 <__stack_size+0x560>
     d3a:	8161d783          	lhu	a5,-2026(gp) # 20000456 <USBFS_SetupReqValue>
     d3e:	07c2                	slli	a5,a5,0x10
     d40:	83c1                	srli	a5,a5,0x10
     d42:	0ff7f713          	andi	a4,a5,255
     d46:	4785                	li	a5,1
     d48:	26f71763          	bne	a4,a5,fb6 <__stack_size+0x7b6>
     d4c:	81e1c783          	lbu	a5,-2018(gp) # 2000045e <USBFS_DevSleepStatus>
     d50:	0ff7f793          	andi	a5,a5,255
     d54:	9bf9                	andi	a5,a5,-2
     d56:	0ff7f713          	andi	a4,a5,255
     d5a:	80e18f23          	sb	a4,-2018(gp) # 2000045e <USBFS_DevSleepStatus>
     d5e:	aca1                	j	fb6 <__stack_size+0x7b6>
     d60:	8151c783          	lbu	a5,-2027(gp) # 20000455 <USBFS_SetupReqType>
     d64:	0ff7f793          	andi	a5,a5,255
     d68:	01f7f713          	andi	a4,a5,31
     d6c:	4789                	li	a5,2
     d6e:	04f71963          	bne	a4,a5,dc0 <__stack_size+0x5c0>
     d72:	8161d783          	lhu	a5,-2026(gp) # 20000456 <USBFS_SetupReqValue>
     d76:	07c2                	slli	a5,a5,0x10
     d78:	83c1                	srli	a5,a5,0x10
     d7a:	0ff7f793          	andi	a5,a5,255
     d7e:	e7a9                	bnez	a5,dc8 <__stack_size+0x5c8>
     d80:	8181d783          	lhu	a5,-2024(gp) # 20000458 <USBFS_SetupReqIndex>
     d84:	07c2                	slli	a5,a5,0x10
     d86:	83c1                	srli	a5,a5,0x10
     d88:	0ff7f793          	andi	a5,a5,255
     d8c:	08100713          	li	a4,129
     d90:	00e78763          	beq	a5,a4,d9e <__stack_size+0x59e>
     d94:	08200713          	li	a4,130
     d98:	00e78963          	beq	a5,a4,daa <__stack_size+0x5aa>
     d9c:	a829                	j	db6 <__stack_size+0x5b6>
     d9e:	500007b7          	lui	a5,0x50000
     da2:	4709                	li	a4,2
     da4:	02e78b23          	sb	a4,54(a5) # 50000036 <_eusrstack+0x2fff8036>
     da8:	a00d                	j	dca <__stack_size+0x5ca>
     daa:	500007b7          	lui	a5,0x50000
     dae:	4709                	li	a4,2
     db0:	02e78d23          	sb	a4,58(a5) # 5000003a <_eusrstack+0x2fff803a>
     db4:	a819                	j	dca <__stack_size+0x5ca>
     db6:	57fd                	li	a5,-1
     db8:	fef407a3          	sb	a5,-17(s0)
     dbc:	0001                	nop
     dbe:	a031                	j	dca <__stack_size+0x5ca>
     dc0:	57fd                	li	a5,-1
     dc2:	fef407a3          	sb	a5,-17(s0)
     dc6:	aac5                	j	fb6 <__stack_size+0x7b6>
     dc8:	0001                	nop
     dca:	a2f5                	j	fb6 <__stack_size+0x7b6>
     dcc:	8151c783          	lbu	a5,-2027(gp) # 20000455 <USBFS_SetupReqType>
     dd0:	0ff7f793          	andi	a5,a5,255
     dd4:	8bfd                	andi	a5,a5,31
     dd6:	e7a1                	bnez	a5,e1e <__stack_size+0x61e>
     dd8:	8161d783          	lhu	a5,-2026(gp) # 20000456 <USBFS_SetupReqValue>
     ddc:	07c2                	slli	a5,a5,0x10
     dde:	83c1                	srli	a5,a5,0x10
     de0:	0ff7f713          	andi	a4,a5,255
     de4:	4785                	li	a5,1
     de6:	02f71863          	bne	a4,a5,e16 <__stack_size+0x616>
     dea:	6795                	lui	a5,0x5
     dec:	63878793          	addi	a5,a5,1592 # 5638 <MyCfgDescr>
     df0:	33fc                	lbu	a5,7(a5)
     df2:	0207f793          	andi	a5,a5,32
     df6:	cf81                	beqz	a5,e0e <__stack_size+0x60e>
     df8:	81e1c783          	lbu	a5,-2018(gp) # 2000045e <USBFS_DevSleepStatus>
     dfc:	0ff7f793          	andi	a5,a5,255
     e00:	0017e793          	ori	a5,a5,1
     e04:	0ff7f713          	andi	a4,a5,255
     e08:	80e18f23          	sb	a4,-2018(gp) # 2000045e <USBFS_DevSleepStatus>
     e0c:	aa55                	j	fc0 <__stack_size+0x7c0>
     e0e:	57fd                	li	a5,-1
     e10:	fef407a3          	sb	a5,-17(s0)
     e14:	a275                	j	fc0 <__stack_size+0x7c0>
     e16:	57fd                	li	a5,-1
     e18:	fef407a3          	sb	a5,-17(s0)
     e1c:	a255                	j	fc0 <__stack_size+0x7c0>
     e1e:	8151c783          	lbu	a5,-2027(gp) # 20000455 <USBFS_SetupReqType>
     e22:	0ff7f793          	andi	a5,a5,255
     e26:	01f7f713          	andi	a4,a5,31
     e2a:	4789                	li	a5,2
     e2c:	06f71f63          	bne	a4,a5,eaa <__stack_size+0x6aa>
     e30:	8161d783          	lhu	a5,-2026(gp) # 20000456 <USBFS_SetupReqValue>
     e34:	07c2                	slli	a5,a5,0x10
     e36:	83c1                	srli	a5,a5,0x10
     e38:	0ff7f793          	andi	a5,a5,255
     e3c:	e3bd                	bnez	a5,ea2 <__stack_size+0x6a2>
     e3e:	8181d783          	lhu	a5,-2024(gp) # 20000458 <USBFS_SetupReqIndex>
     e42:	07c2                	slli	a5,a5,0x10
     e44:	83c1                	srli	a5,a5,0x10
     e46:	0ff7f793          	andi	a5,a5,255
     e4a:	08100713          	li	a4,129
     e4e:	00e78763          	beq	a5,a4,e5c <__stack_size+0x65c>
     e52:	08200713          	li	a4,130
     e56:	02e78263          	beq	a5,a4,e7a <__stack_size+0x67a>
     e5a:	a83d                	j	e98 <__stack_size+0x698>
     e5c:	500007b7          	lui	a5,0x50000
     e60:	0367c783          	lbu	a5,54(a5) # 50000036 <_eusrstack+0x2fff8036>
     e64:	0ff7f713          	andi	a4,a5,255
     e68:	500007b7          	lui	a5,0x50000
     e6c:	00376713          	ori	a4,a4,3
     e70:	0ff77713          	andi	a4,a4,255
     e74:	02e78b23          	sb	a4,54(a5) # 50000036 <_eusrstack+0x2fff8036>
     e78:	a82d                	j	eb2 <__stack_size+0x6b2>
     e7a:	500007b7          	lui	a5,0x50000
     e7e:	03a7c783          	lbu	a5,58(a5) # 5000003a <_eusrstack+0x2fff803a>
     e82:	0ff7f713          	andi	a4,a5,255
     e86:	500007b7          	lui	a5,0x50000
     e8a:	00376713          	ori	a4,a4,3
     e8e:	0ff77713          	andi	a4,a4,255
     e92:	02e78d23          	sb	a4,58(a5) # 5000003a <_eusrstack+0x2fff803a>
     e96:	a831                	j	eb2 <__stack_size+0x6b2>
     e98:	57fd                	li	a5,-1
     e9a:	fef407a3          	sb	a5,-17(s0)
     e9e:	0001                	nop
     ea0:	a809                	j	eb2 <__stack_size+0x6b2>
     ea2:	57fd                	li	a5,-1
     ea4:	fef407a3          	sb	a5,-17(s0)
     ea8:	aa21                	j	fc0 <__stack_size+0x7c0>
     eaa:	57fd                	li	a5,-1
     eac:	fef407a3          	sb	a5,-17(s0)
     eb0:	aa01                	j	fc0 <__stack_size+0x7c0>
     eb2:	a239                	j	fc0 <__stack_size+0x7c0>
     eb4:	84018c23          	sb	zero,-1960(gp) # 20000498 <USBFS_EP0_Buf>
     eb8:	81a1d783          	lhu	a5,-2022(gp) # 2000045a <USBFS_SetupReqLen>
     ebc:	01079713          	slli	a4,a5,0x10
     ec0:	8341                	srli	a4,a4,0x10
     ec2:	4785                	li	a5,1
     ec4:	0ee7fb63          	bgeu	a5,a4,fba <__stack_size+0x7ba>
     ec8:	4705                	li	a4,1
     eca:	80e19d23          	sh	a4,-2022(gp) # 2000045a <USBFS_SetupReqLen>
     ece:	a0f5                	j	fba <__stack_size+0x7ba>
     ed0:	84018c23          	sb	zero,-1960(gp) # 20000498 <USBFS_EP0_Buf>
     ed4:	85818793          	addi	a5,gp,-1960 # 20000498 <USBFS_EP0_Buf>
     ed8:	000780a3          	sb	zero,1(a5)
     edc:	8151c783          	lbu	a5,-2027(gp) # 20000455 <USBFS_SetupReqType>
     ee0:	0ff7f793          	andi	a5,a5,255
     ee4:	8bfd                	andi	a5,a5,31
     ee6:	ef91                	bnez	a5,f02 <__stack_size+0x702>
     ee8:	81e1c783          	lbu	a5,-2018(gp) # 2000045e <USBFS_DevSleepStatus>
     eec:	0ff7f793          	andi	a5,a5,255
     ef0:	8b85                	andi	a5,a5,1
     ef2:	c789                	beqz	a5,efc <__stack_size+0x6fc>
     ef4:	4709                	li	a4,2
     ef6:	84e18c23          	sb	a4,-1960(gp) # 20000498 <USBFS_EP0_Buf>
     efa:	a071                	j	f86 <__stack_size+0x786>
     efc:	84018c23          	sb	zero,-1960(gp) # 20000498 <USBFS_EP0_Buf>
     f00:	a059                	j	f86 <__stack_size+0x786>
     f02:	8151c783          	lbu	a5,-2027(gp) # 20000455 <USBFS_SetupReqType>
     f06:	0ff7f793          	andi	a5,a5,255
     f0a:	01f7f713          	andi	a4,a5,31
     f0e:	4789                	li	a5,2
     f10:	06f71863          	bne	a4,a5,f80 <__stack_size+0x780>
     f14:	8181d783          	lhu	a5,-2024(gp) # 20000458 <USBFS_SetupReqIndex>
     f18:	07c2                	slli	a5,a5,0x10
     f1a:	83c1                	srli	a5,a5,0x10
     f1c:	0ff7f713          	andi	a4,a5,255
     f20:	08100793          	li	a5,129
     f24:	02f71163          	bne	a4,a5,f46 <__stack_size+0x746>
     f28:	500007b7          	lui	a5,0x50000
     f2c:	0367c783          	lbu	a5,54(a5) # 50000036 <_eusrstack+0x2fff8036>
     f30:	0ff7f793          	andi	a5,a5,255
     f34:	0037f713          	andi	a4,a5,3
     f38:	478d                	li	a5,3
     f3a:	04f71663          	bne	a4,a5,f86 <__stack_size+0x786>
     f3e:	4705                	li	a4,1
     f40:	84e18c23          	sb	a4,-1960(gp) # 20000498 <USBFS_EP0_Buf>
     f44:	a089                	j	f86 <__stack_size+0x786>
     f46:	8181d783          	lhu	a5,-2024(gp) # 20000458 <USBFS_SetupReqIndex>
     f4a:	07c2                	slli	a5,a5,0x10
     f4c:	83c1                	srli	a5,a5,0x10
     f4e:	0ff7f713          	andi	a4,a5,255
     f52:	08200793          	li	a5,130
     f56:	02f71163          	bne	a4,a5,f78 <__stack_size+0x778>
     f5a:	500007b7          	lui	a5,0x50000
     f5e:	03a7c783          	lbu	a5,58(a5) # 5000003a <_eusrstack+0x2fff803a>
     f62:	0ff7f793          	andi	a5,a5,255
     f66:	0037f713          	andi	a4,a5,3
     f6a:	478d                	li	a5,3
     f6c:	00f71d63          	bne	a4,a5,f86 <__stack_size+0x786>
     f70:	4705                	li	a4,1
     f72:	84e18c23          	sb	a4,-1960(gp) # 20000498 <USBFS_EP0_Buf>
     f76:	a801                	j	f86 <__stack_size+0x786>
     f78:	57fd                	li	a5,-1
     f7a:	fef407a3          	sb	a5,-17(s0)
     f7e:	a021                	j	f86 <__stack_size+0x786>
     f80:	57fd                	li	a5,-1
     f82:	fef407a3          	sb	a5,-17(s0)
     f86:	81a1d783          	lhu	a5,-2022(gp) # 2000045a <USBFS_SetupReqLen>
     f8a:	01079713          	slli	a4,a5,0x10
     f8e:	8341                	srli	a4,a4,0x10
     f90:	4789                	li	a5,2
     f92:	02e7f663          	bgeu	a5,a4,fbe <__stack_size+0x7be>
     f96:	4709                	li	a4,2
     f98:	80e19d23          	sh	a4,-2022(gp) # 2000045a <USBFS_SetupReqLen>
     f9c:	a00d                	j	fbe <__stack_size+0x7be>
     f9e:	57fd                	li	a5,-1
     fa0:	fef407a3          	sb	a5,-17(s0)
     fa4:	a831                	j	fc0 <__stack_size+0x7c0>
     fa6:	0001                	nop
     fa8:	a821                	j	fc0 <__stack_size+0x7c0>
     faa:	0001                	nop
     fac:	a811                	j	fc0 <__stack_size+0x7c0>
     fae:	0001                	nop
     fb0:	a801                	j	fc0 <__stack_size+0x7c0>
     fb2:	0001                	nop
     fb4:	a031                	j	fc0 <__stack_size+0x7c0>
     fb6:	0001                	nop
     fb8:	a021                	j	fc0 <__stack_size+0x7c0>
     fba:	0001                	nop
     fbc:	a011                	j	fc0 <__stack_size+0x7c0>
     fbe:	0001                	nop
     fc0:	fef44703          	lbu	a4,-17(s0)
     fc4:	0ff00793          	li	a5,255
     fc8:	00f71d63          	bne	a4,a5,fe2 <__stack_size+0x7e2>
     fcc:	500007b7          	lui	a5,0x50000
     fd0:	471d                	li	a4,7
     fd2:	02e78923          	sb	a4,50(a5) # 50000032 <_eusrstack+0x2fff8032>
     fd6:	500007b7          	lui	a5,0x50000
     fda:	471d                	li	a4,7
     fdc:	02e789a3          	sb	a4,51(a5) # 50000033 <_eusrstack+0x2fff8033>
     fe0:	a851                	j	1074 <__stack_size+0x874>
     fe2:	8151c783          	lbu	a5,-2027(gp) # 20000455 <USBFS_SetupReqType>
     fe6:	0ff7f793          	andi	a5,a5,255
     fea:	07e2                	slli	a5,a5,0x18
     fec:	87e1                	srai	a5,a5,0x18
     fee:	0407dd63          	bgez	a5,1048 <__stack_size+0x848>
     ff2:	81a1d783          	lhu	a5,-2022(gp) # 2000045a <USBFS_SetupReqLen>
     ff6:	01079713          	slli	a4,a5,0x10
     ffa:	8341                	srli	a4,a4,0x10
     ffc:	04000793          	li	a5,64
    1000:	00e7e763          	bltu	a5,a4,100e <__stack_size+0x80e>
    1004:	81a1d783          	lhu	a5,-2022(gp) # 2000045a <USBFS_SetupReqLen>
    1008:	07c2                	slli	a5,a5,0x10
    100a:	83c1                	srli	a5,a5,0x10
    100c:	a019                	j	1012 <__stack_size+0x812>
    100e:	04000793          	li	a5,64
    1012:	fef41623          	sh	a5,-20(s0)
    1016:	81a1d783          	lhu	a5,-2022(gp) # 2000045a <USBFS_SetupReqLen>
    101a:	01079713          	slli	a4,a5,0x10
    101e:	8341                	srli	a4,a4,0x10
    1020:	fec45783          	lhu	a5,-20(s0)
    1024:	40f707b3          	sub	a5,a4,a5
    1028:	01079713          	slli	a4,a5,0x10
    102c:	8341                	srli	a4,a4,0x10
    102e:	80e19d23          	sh	a4,-2022(gp) # 2000045a <USBFS_SetupReqLen>
    1032:	500007b7          	lui	a5,0x50000
    1036:	fec45703          	lhu	a4,-20(s0)
    103a:	bb9a                	sh	a4,48(a5)
    103c:	500007b7          	lui	a5,0x50000
    1040:	4711                	li	a4,4
    1042:	02e78923          	sb	a4,50(a5) # 50000032 <_eusrstack+0x2fff8032>
    1046:	a03d                	j	1074 <__stack_size+0x874>
    1048:	81a1d783          	lhu	a5,-2022(gp) # 2000045a <USBFS_SetupReqLen>
    104c:	07c2                	slli	a5,a5,0x10
    104e:	83c1                	srli	a5,a5,0x10
    1050:	eb99                	bnez	a5,1066 <__stack_size+0x866>
    1052:	500007b7          	lui	a5,0x50000
    1056:	02079823          	sh	zero,48(a5) # 50000030 <_eusrstack+0x2fff8030>
    105a:	500007b7          	lui	a5,0x50000
    105e:	4711                	li	a4,4
    1060:	02e78923          	sb	a4,50(a5) # 50000032 <_eusrstack+0x2fff8032>
    1064:	a801                	j	1074 <__stack_size+0x874>
    1066:	500007b7          	lui	a5,0x50000
    106a:	4711                	li	a4,4
    106c:	02e789a3          	sb	a4,51(a5) # 50000033 <_eusrstack+0x2fff8033>
    1070:	a011                	j	1074 <__stack_size+0x874>
    1072:	0001                	nop
    1074:	500007b7          	lui	a5,0x50000
    1078:	4709                	li	a4,2
    107a:	a3f8                	sb	a4,6(a5)
    107c:	a869                	j	1116 <__stack_size+0x916>
    107e:	feb44783          	lbu	a5,-21(s0)
    1082:	8b85                	andi	a5,a5,1
    1084:	c785                	beqz	a5,10ac <__stack_size+0x8ac>
    1086:	80018e23          	sb	zero,-2020(gp) # 2000045c <USBFS_DevConfig>
    108a:	80018ea3          	sb	zero,-2019(gp) # 2000045d <USBFS_DevAddr>
    108e:	80018f23          	sb	zero,-2018(gp) # 2000045e <USBFS_DevSleepStatus>
    1092:	80018fa3          	sb	zero,-2017(gp) # 2000045f <USBFS_DevEnumStatus>
    1096:	500007b7          	lui	a5,0x50000
    109a:	000781a3          	sb	zero,3(a5) # 50000003 <_eusrstack+0x2fff8003>
    109e:	9eaff0ef          	jal	ra,288 <USBFS_Device_Endp_Init>
    10a2:	500007b7          	lui	a5,0x50000
    10a6:	4705                	li	a4,1
    10a8:	a3f8                	sb	a4,6(a5)
    10aa:	a0b5                	j	1116 <__stack_size+0x916>
    10ac:	feb44783          	lbu	a5,-21(s0)
    10b0:	8b91                	andi	a5,a5,4
    10b2:	cfa9                	beqz	a5,110c <__stack_size+0x90c>
    10b4:	500007b7          	lui	a5,0x50000
    10b8:	4711                	li	a4,4
    10ba:	a3f8                	sb	a4,6(a5)
    10bc:	4529                	li	a0,10
    10be:	29a040ef          	jal	ra,5358 <Delay_Us>
    10c2:	500007b7          	lui	a5,0x50000
    10c6:	33dc                	lbu	a5,5(a5)
    10c8:	0ff7f793          	andi	a5,a5,255
    10cc:	8b91                	andi	a5,a5,4
    10ce:	c78d                	beqz	a5,10f8 <__stack_size+0x8f8>
    10d0:	81e1c783          	lbu	a5,-2018(gp) # 2000045e <USBFS_DevSleepStatus>
    10d4:	0ff7f793          	andi	a5,a5,255
    10d8:	0027e793          	ori	a5,a5,2
    10dc:	0ff7f713          	andi	a4,a5,255
    10e0:	80e18f23          	sb	a4,-2018(gp) # 2000045e <USBFS_DevSleepStatus>
    10e4:	81e1c783          	lbu	a5,-2018(gp) # 2000045e <USBFS_DevSleepStatus>
    10e8:	0ff7f713          	andi	a4,a5,255
    10ec:	478d                	li	a5,3
    10ee:	02f71463          	bne	a4,a5,1116 <__stack_size+0x916>
    10f2:	188010ef          	jal	ra,227a <MCU_Sleep_Wakeup_Operate>
    10f6:	a005                	j	1116 <__stack_size+0x916>
    10f8:	81e1c783          	lbu	a5,-2018(gp) # 2000045e <USBFS_DevSleepStatus>
    10fc:	0ff7f793          	andi	a5,a5,255
    1100:	9bf5                	andi	a5,a5,-3
    1102:	0ff7f713          	andi	a4,a5,255
    1106:	80e18f23          	sb	a4,-2018(gp) # 2000045e <USBFS_DevSleepStatus>
    110a:	a031                	j	1116 <__stack_size+0x916>
    110c:	500007b7          	lui	a5,0x50000
    1110:	feb44703          	lbu	a4,-21(s0)
    1114:	a3f8                	sb	a4,6(a5)
    1116:	0001                	nop
    1118:	4472                	lw	s0,28(sp)
    111a:	6105                	addi	sp,sp,32
    111c:	30200073          	mret

00001120 <USBFS_Send_Resume>:
    1120:	1141                	addi	sp,sp,-16
    1122:	c606                	sw	ra,12(sp)
    1124:	c422                	sw	s0,8(sp)
    1126:	0800                	addi	s0,sp,16
    1128:	500007b7          	lui	a5,0x50000
    112c:	339c                	lbu	a5,1(a5)
    112e:	0ff7f713          	andi	a4,a5,255
    1132:	500007b7          	lui	a5,0x50000
    1136:	00474713          	xori	a4,a4,4
    113a:	0ff77713          	andi	a4,a4,255
    113e:	b398                	sb	a4,1(a5)
    1140:	4521                	li	a0,8
    1142:	29a040ef          	jal	ra,53dc <Delay_Ms>
    1146:	500007b7          	lui	a5,0x50000
    114a:	339c                	lbu	a5,1(a5)
    114c:	0ff7f713          	andi	a4,a5,255
    1150:	500007b7          	lui	a5,0x50000
    1154:	00474713          	xori	a4,a4,4
    1158:	0ff77713          	andi	a4,a4,255
    115c:	b398                	sb	a4,1(a5)
    115e:	4505                	li	a0,1
    1160:	27c040ef          	jal	ra,53dc <Delay_Ms>
    1164:	0001                	nop
    1166:	40b2                	lw	ra,12(sp)
    1168:	4422                	lw	s0,8(sp)
    116a:	0141                	addi	sp,sp,16
    116c:	8082                	ret

0000116e <UART1_Init>:
    116e:	7139                	addi	sp,sp,-64
    1170:	de06                	sw	ra,60(sp)
    1172:	dc22                	sw	s0,56(sp)
    1174:	0080                	addi	s0,sp,64
    1176:	fca42623          	sw	a0,-52(s0)
    117a:	4585                	li	a1,1
    117c:	4511                	li	a0,4
    117e:	426020ef          	jal	ra,35a4 <RCC_APB2PeriphClockCmd>
    1182:	4585                	li	a1,1
    1184:	6511                	lui	a0,0x4
    1186:	41e020ef          	jal	ra,35a4 <RCC_APB2PeriphClockCmd>
    118a:	20000793          	li	a5,512
    118e:	fcf41a23          	sh	a5,-44(s0)
    1192:	478d                	li	a5,3
    1194:	fcf42c23          	sw	a5,-40(s0)
    1198:	47e1                	li	a5,24
    119a:	fcf42e23          	sw	a5,-36(s0)
    119e:	fd440793          	addi	a5,s0,-44
    11a2:	85be                	mv	a1,a5
    11a4:	400117b7          	lui	a5,0x40011
    11a8:	80078513          	addi	a0,a5,-2048 # 40010800 <_eusrstack+0x20008800>
    11ac:	0eb010ef          	jal	ra,2a96 <GPIO_Init>
    11b0:	40000793          	li	a5,1024
    11b4:	fcf41a23          	sh	a5,-44(s0)
    11b8:	4791                	li	a5,4
    11ba:	fcf42e23          	sw	a5,-36(s0)
    11be:	fd440793          	addi	a5,s0,-44
    11c2:	85be                	mv	a1,a5
    11c4:	400117b7          	lui	a5,0x40011
    11c8:	80078513          	addi	a0,a5,-2048 # 40010800 <_eusrstack+0x20008800>
    11cc:	0cb010ef          	jal	ra,2a96 <GPIO_Init>
    11d0:	fcc42783          	lw	a5,-52(s0)
    11d4:	fef42023          	sw	a5,-32(s0)
    11d8:	fe041223          	sh	zero,-28(s0)
    11dc:	fe041323          	sh	zero,-26(s0)
    11e0:	fe041423          	sh	zero,-24(s0)
    11e4:	fe041623          	sh	zero,-20(s0)
    11e8:	47b1                	li	a5,12
    11ea:	fef41523          	sh	a5,-22(s0)
    11ee:	fe040793          	addi	a5,s0,-32
    11f2:	85be                	mv	a1,a5
    11f4:	400147b7          	lui	a5,0x40014
    11f8:	80078513          	addi	a0,a5,-2048 # 40013800 <_eusrstack+0x2000b800>
    11fc:	4b9020ef          	jal	ra,3eb4 <USART_Init>
    1200:	4585                	li	a1,1
    1202:	400147b7          	lui	a5,0x40014
    1206:	80078513          	addi	a0,a5,-2048 # 40013800 <_eusrstack+0x2000b800>
    120a:	65f020ef          	jal	ra,4068 <USART_Cmd>
    120e:	0001                	nop
    1210:	50f2                	lw	ra,60(sp)
    1212:	5462                	lw	s0,56(sp)
    1214:	6121                	addi	sp,sp,64
    1216:	8082                	ret

00001218 <UART2_Init>:
    1218:	7139                	addi	sp,sp,-64
    121a:	de06                	sw	ra,60(sp)
    121c:	dc22                	sw	s0,56(sp)
    121e:	0080                	addi	s0,sp,64
    1220:	fca42623          	sw	a0,-52(s0)
    1224:	4585                	li	a1,1
    1226:	4511                	li	a0,4
    1228:	37c020ef          	jal	ra,35a4 <RCC_APB2PeriphClockCmd>
    122c:	4585                	li	a1,1
    122e:	00020537          	lui	a0,0x20
    1232:	3b8020ef          	jal	ra,35ea <RCC_APB1PeriphClockCmd>
    1236:	4791                	li	a5,4
    1238:	fcf41a23          	sh	a5,-44(s0)
    123c:	478d                	li	a5,3
    123e:	fcf42c23          	sw	a5,-40(s0)
    1242:	47e1                	li	a5,24
    1244:	fcf42e23          	sw	a5,-36(s0)
    1248:	fd440793          	addi	a5,s0,-44
    124c:	85be                	mv	a1,a5
    124e:	400117b7          	lui	a5,0x40011
    1252:	80078513          	addi	a0,a5,-2048 # 40010800 <_eusrstack+0x20008800>
    1256:	041010ef          	jal	ra,2a96 <GPIO_Init>
    125a:	47a1                	li	a5,8
    125c:	fcf41a23          	sh	a5,-44(s0)
    1260:	4791                	li	a5,4
    1262:	fcf42e23          	sw	a5,-36(s0)
    1266:	fd440793          	addi	a5,s0,-44
    126a:	85be                	mv	a1,a5
    126c:	400117b7          	lui	a5,0x40011
    1270:	80078513          	addi	a0,a5,-2048 # 40010800 <_eusrstack+0x20008800>
    1274:	023010ef          	jal	ra,2a96 <GPIO_Init>
    1278:	fcc42783          	lw	a5,-52(s0)
    127c:	fef42023          	sw	a5,-32(s0)
    1280:	fe041223          	sh	zero,-28(s0)
    1284:	fe041323          	sh	zero,-26(s0)
    1288:	fe041423          	sh	zero,-24(s0)
    128c:	fe041623          	sh	zero,-20(s0)
    1290:	47b1                	li	a5,12
    1292:	fef41523          	sh	a5,-22(s0)
    1296:	fe040793          	addi	a5,s0,-32
    129a:	85be                	mv	a1,a5
    129c:	400047b7          	lui	a5,0x40004
    12a0:	40078513          	addi	a0,a5,1024 # 40004400 <_eusrstack+0x1fffc400>
    12a4:	411020ef          	jal	ra,3eb4 <USART_Init>
    12a8:	4585                	li	a1,1
    12aa:	400047b7          	lui	a5,0x40004
    12ae:	40078513          	addi	a0,a5,1024 # 40004400 <_eusrstack+0x1fffc400>
    12b2:	5b7020ef          	jal	ra,4068 <USART_Cmd>
    12b6:	0001                	nop
    12b8:	50f2                	lw	ra,60(sp)
    12ba:	5462                	lw	s0,56(sp)
    12bc:	6121                	addi	sp,sp,64
    12be:	8082                	ret

000012c0 <main>:
    12c0:	1101                	addi	sp,sp,-32
    12c2:	ce06                	sw	ra,28(sp)
    12c4:	cc22                	sw	s0,24(sp)
    12c6:	1000                	addi	s0,sp,32
    12c8:	2205                	jal	13e8 <SystemCoreClockUpdate>
    12ca:	4509                	li	a0,2
    12cc:	4dd010ef          	jal	ra,2fa8 <NVIC_PriorityGroupConfig>
    12d0:	042040ef          	jal	ra,5312 <Delay_Init>
    12d4:	67f1                	lui	a5,0x1c
    12d6:	20078513          	addi	a0,a5,512 # 1c200 <_data_lma+0x16adc>
    12da:	3d51                	jal	116e <UART1_Init>
    12dc:	679000ef          	jal	ra,2154 <KB_Sleep_Wakeup_Cfg>
    12e0:	200007b7          	lui	a5,0x20000
    12e4:	4407a703          	lw	a4,1088(a5) # 20000440 <SystemCoreClock>
    12e8:	6789                	lui	a5,0x2
    12ea:	71078793          	addi	a5,a5,1808 # 2710 <DMA_Init+0x8e>
    12ee:	02f757b3          	divu	a5,a4,a5
    12f2:	07c2                	slli	a5,a5,0x10
    12f4:	83c1                	srli	a5,a5,0x10
    12f6:	17fd                	addi	a5,a5,-1
    12f8:	07c2                	slli	a5,a5,0x10
    12fa:	83c1                	srli	a5,a5,0x10
    12fc:	85be                	mv	a1,a5
    12fe:	4505                	li	a0,1
    1300:	56d000ef          	jal	ra,206c <TIM3_Init>
    1304:	67f1                	lui	a5,0x1c
    1306:	20078513          	addi	a0,a5,512 # 1c200 <_data_lma+0x16adc>
    130a:	3739                	jal	1218 <UART2_Init>
    130c:	f39fe0ef          	jal	ra,244 <USBFS_RCC_Init>
    1310:	4505                	li	a0,1
    1312:	ffbfe0ef          	jal	ra,30c <USBFS_Device_Init>
    1316:	721000ef          	jal	ra,2236 <USB_Sleep_Wakeup_CFG>
    131a:	fe042623          	sw	zero,-20(s0)
    131e:	fe041523          	sh	zero,-22(s0)
    1322:	2199                	jal	1768 <Keyboard_IO_Init>
    1324:	6a3020ef          	jal	ra,41c6 <SPI_FLASH_Init>
    1328:	11c030ef          	jal	ra,4444 <LCD_Init>
    132c:	75f030ef          	jal	ra,528a <System_Init>
    1330:	000217b7          	lui	a5,0x21
    1334:	d0078713          	addi	a4,a5,-768 # 20d00 <_data_lma+0x1b5dc>
    1338:	0f000693          	li	a3,240
    133c:	11800613          	li	a2,280
    1340:	4581                	li	a1,0
    1342:	4551                	li	a0,20
    1344:	420030ef          	jal	ra,4764 <LCD_drawImageWithSize>
    1348:	783030ef          	jal	ra,52ca <System_Loop>
    134c:	2715                	jal	1a70 <KB_Scan_Handle>
    134e:	bfed                	j	1348 <main+0x88>

00001350 <SystemInit>:
    1350:	1141                	addi	sp,sp,-16
    1352:	c606                	sw	ra,12(sp)
    1354:	c422                	sw	s0,8(sp)
    1356:	0800                	addi	s0,sp,16
    1358:	400217b7          	lui	a5,0x40021
    135c:	4398                	lw	a4,0(a5)
    135e:	400217b7          	lui	a5,0x40021
    1362:	00176713          	ori	a4,a4,1
    1366:	c398                	sw	a4,0(a5)
    1368:	400217b7          	lui	a5,0x40021
    136c:	43d4                	lw	a3,4(a5)
    136e:	400217b7          	lui	a5,0x40021
    1372:	f0ff0737          	lui	a4,0xf0ff0
    1376:	8f75                	and	a4,a4,a3
    1378:	c3d8                	sw	a4,4(a5)
    137a:	400217b7          	lui	a5,0x40021
    137e:	4394                	lw	a3,0(a5)
    1380:	400217b7          	lui	a5,0x40021
    1384:	fef70737          	lui	a4,0xfef70
    1388:	177d                	addi	a4,a4,-1
    138a:	8f75                	and	a4,a4,a3
    138c:	c398                	sw	a4,0(a5)
    138e:	400217b7          	lui	a5,0x40021
    1392:	4394                	lw	a3,0(a5)
    1394:	400217b7          	lui	a5,0x40021
    1398:	fffc0737          	lui	a4,0xfffc0
    139c:	177d                	addi	a4,a4,-1
    139e:	8f75                	and	a4,a4,a3
    13a0:	c398                	sw	a4,0(a5)
    13a2:	400217b7          	lui	a5,0x40021
    13a6:	43d4                	lw	a3,4(a5)
    13a8:	400217b7          	lui	a5,0x40021
    13ac:	ff010737          	lui	a4,0xff010
    13b0:	177d                	addi	a4,a4,-1
    13b2:	8f75                	and	a4,a4,a3
    13b4:	c3d8                	sw	a4,4(a5)
    13b6:	400217b7          	lui	a5,0x40021
    13ba:	4394                	lw	a3,0(a5)
    13bc:	400217b7          	lui	a5,0x40021
    13c0:	ec000737          	lui	a4,0xec000
    13c4:	177d                	addi	a4,a4,-1
    13c6:	8f75                	and	a4,a4,a3
    13c8:	c398                	sw	a4,0(a5)
    13ca:	400217b7          	lui	a5,0x40021
    13ce:	00ff0737          	lui	a4,0xff0
    13d2:	c798                	sw	a4,8(a5)
    13d4:	400217b7          	lui	a5,0x40021
    13d8:	0207a623          	sw	zero,44(a5) # 4002102c <_eusrstack+0x2001902c>
    13dc:	2ae9                	jal	15b6 <SetSysClock>
    13de:	0001                	nop
    13e0:	40b2                	lw	ra,12(sp)
    13e2:	4422                	lw	s0,8(sp)
    13e4:	0141                	addi	sp,sp,16
    13e6:	8082                	ret

000013e8 <SystemCoreClockUpdate>:
    13e8:	1101                	addi	sp,sp,-32
    13ea:	ce22                	sw	s0,28(sp)
    13ec:	1000                	addi	s0,sp,32
    13ee:	fe042223          	sw	zero,-28(s0)
    13f2:	fe042623          	sw	zero,-20(s0)
    13f6:	fe042023          	sw	zero,-32(s0)
    13fa:	fe042423          	sw	zero,-24(s0)
    13fe:	400217b7          	lui	a5,0x40021
    1402:	43dc                	lw	a5,4(a5)
    1404:	8bb1                	andi	a5,a5,12
    1406:	fef42223          	sw	a5,-28(s0)
    140a:	fe442703          	lw	a4,-28(s0)
    140e:	4791                	li	a5,4
    1410:	02f70463          	beq	a4,a5,1438 <SystemCoreClockUpdate+0x50>
    1414:	fe442703          	lw	a4,-28(s0)
    1418:	47a1                	li	a5,8
    141a:	02f70863          	beq	a4,a5,144a <SystemCoreClockUpdate+0x62>
    141e:	fe442783          	lw	a5,-28(s0)
    1422:	14079063          	bnez	a5,1562 <SystemCoreClockUpdate+0x17a>
    1426:	200007b7          	lui	a5,0x20000
    142a:	007a1737          	lui	a4,0x7a1
    142e:	20070713          	addi	a4,a4,512 # 7a1200 <_data_lma+0x79badc>
    1432:	44e7a023          	sw	a4,1088(a5) # 20000440 <SystemCoreClock>
    1436:	a281                	j	1576 <SystemCoreClockUpdate+0x18e>
    1438:	200007b7          	lui	a5,0x20000
    143c:	007a1737          	lui	a4,0x7a1
    1440:	20070713          	addi	a4,a4,512 # 7a1200 <_data_lma+0x79badc>
    1444:	44e7a023          	sw	a4,1088(a5) # 20000440 <SystemCoreClock>
    1448:	a23d                	j	1576 <SystemCoreClockUpdate+0x18e>
    144a:	400217b7          	lui	a5,0x40021
    144e:	43d8                	lw	a4,4(a5)
    1450:	003c07b7          	lui	a5,0x3c0
    1454:	8ff9                	and	a5,a5,a4
    1456:	fef42623          	sw	a5,-20(s0)
    145a:	400217b7          	lui	a5,0x40021
    145e:	43d8                	lw	a4,4(a5)
    1460:	67c1                	lui	a5,0x10
    1462:	8ff9                	and	a5,a5,a4
    1464:	fef42023          	sw	a5,-32(s0)
    1468:	fec42783          	lw	a5,-20(s0)
    146c:	83c9                	srli	a5,a5,0x12
    146e:	0789                	addi	a5,a5,2
    1470:	fef42623          	sw	a5,-20(s0)
    1474:	fec42703          	lw	a4,-20(s0)
    1478:	4789                	li	a5,2
    147a:	00f71563          	bne	a4,a5,1484 <SystemCoreClockUpdate+0x9c>
    147e:	47c9                	li	a5,18
    1480:	fef42623          	sw	a5,-20(s0)
    1484:	fec42703          	lw	a4,-20(s0)
    1488:	47bd                	li	a5,15
    148a:	00f71863          	bne	a4,a5,149a <SystemCoreClockUpdate+0xb2>
    148e:	47b5                	li	a5,13
    1490:	fef42623          	sw	a5,-20(s0)
    1494:	4785                	li	a5,1
    1496:	fef42423          	sw	a5,-24(s0)
    149a:	fec42703          	lw	a4,-20(s0)
    149e:	47c1                	li	a5,16
    14a0:	00f71563          	bne	a4,a5,14aa <SystemCoreClockUpdate+0xc2>
    14a4:	47bd                	li	a5,15
    14a6:	fef42623          	sw	a5,-20(s0)
    14aa:	fec42703          	lw	a4,-20(s0)
    14ae:	47c5                	li	a5,17
    14b0:	00f71563          	bne	a4,a5,14ba <SystemCoreClockUpdate+0xd2>
    14b4:	47c1                	li	a5,16
    14b6:	fef42623          	sw	a5,-20(s0)
    14ba:	fe042783          	lw	a5,-32(s0)
    14be:	e3b1                	bnez	a5,1502 <SystemCoreClockUpdate+0x11a>
    14c0:	400247b7          	lui	a5,0x40024
    14c4:	80078793          	addi	a5,a5,-2048 # 40023800 <_eusrstack+0x2001b800>
    14c8:	439c                	lw	a5,0(a5)
    14ca:	8bc1                	andi	a5,a5,16
    14cc:	cf91                	beqz	a5,14e8 <SystemCoreClockUpdate+0x100>
    14ce:	fec42703          	lw	a4,-20(s0)
    14d2:	007a17b7          	lui	a5,0x7a1
    14d6:	20078793          	addi	a5,a5,512 # 7a1200 <_data_lma+0x79badc>
    14da:	02f70733          	mul	a4,a4,a5
    14de:	200007b7          	lui	a5,0x20000
    14e2:	44e7a023          	sw	a4,1088(a5) # 20000440 <SystemCoreClock>
    14e6:	a8b1                	j	1542 <SystemCoreClockUpdate+0x15a>
    14e8:	fec42703          	lw	a4,-20(s0)
    14ec:	003d17b7          	lui	a5,0x3d1
    14f0:	90078793          	addi	a5,a5,-1792 # 3d0900 <_data_lma+0x3cb1dc>
    14f4:	02f70733          	mul	a4,a4,a5
    14f8:	200007b7          	lui	a5,0x20000
    14fc:	44e7a023          	sw	a4,1088(a5) # 20000440 <SystemCoreClock>
    1500:	a089                	j	1542 <SystemCoreClockUpdate+0x15a>
    1502:	400217b7          	lui	a5,0x40021
    1506:	43d8                	lw	a4,4(a5)
    1508:	000207b7          	lui	a5,0x20
    150c:	8ff9                	and	a5,a5,a4
    150e:	cf91                	beqz	a5,152a <SystemCoreClockUpdate+0x142>
    1510:	fec42703          	lw	a4,-20(s0)
    1514:	003d17b7          	lui	a5,0x3d1
    1518:	90078793          	addi	a5,a5,-1792 # 3d0900 <_data_lma+0x3cb1dc>
    151c:	02f70733          	mul	a4,a4,a5
    1520:	200007b7          	lui	a5,0x20000
    1524:	44e7a023          	sw	a4,1088(a5) # 20000440 <SystemCoreClock>
    1528:	a829                	j	1542 <SystemCoreClockUpdate+0x15a>
    152a:	fec42703          	lw	a4,-20(s0)
    152e:	007a17b7          	lui	a5,0x7a1
    1532:	20078793          	addi	a5,a5,512 # 7a1200 <_data_lma+0x79badc>
    1536:	02f70733          	mul	a4,a4,a5
    153a:	200007b7          	lui	a5,0x20000
    153e:	44e7a023          	sw	a4,1088(a5) # 20000440 <SystemCoreClock>
    1542:	fe842703          	lw	a4,-24(s0)
    1546:	4785                	li	a5,1
    1548:	02f71663          	bne	a4,a5,1574 <SystemCoreClockUpdate+0x18c>
    154c:	200007b7          	lui	a5,0x20000
    1550:	4407a783          	lw	a5,1088(a5) # 20000440 <SystemCoreClock>
    1554:	0017d713          	srli	a4,a5,0x1
    1558:	200007b7          	lui	a5,0x20000
    155c:	44e7a023          	sw	a4,1088(a5) # 20000440 <SystemCoreClock>
    1560:	a811                	j	1574 <SystemCoreClockUpdate+0x18c>
    1562:	200007b7          	lui	a5,0x20000
    1566:	007a1737          	lui	a4,0x7a1
    156a:	20070713          	addi	a4,a4,512 # 7a1200 <_data_lma+0x79badc>
    156e:	44e7a023          	sw	a4,1088(a5) # 20000440 <SystemCoreClock>
    1572:	a011                	j	1576 <SystemCoreClockUpdate+0x18e>
    1574:	0001                	nop
    1576:	400217b7          	lui	a5,0x40021
    157a:	43dc                	lw	a5,4(a5)
    157c:	8391                	srli	a5,a5,0x4
    157e:	00f7f713          	andi	a4,a5,15
    1582:	200007b7          	lui	a5,0x20000
    1586:	00078793          	mv	a5,a5
    158a:	97ba                	add	a5,a5,a4
    158c:	239c                	lbu	a5,0(a5)
    158e:	0ff7f793          	andi	a5,a5,255
    1592:	fef42223          	sw	a5,-28(s0)
    1596:	200007b7          	lui	a5,0x20000
    159a:	4407a703          	lw	a4,1088(a5) # 20000440 <SystemCoreClock>
    159e:	fe442783          	lw	a5,-28(s0)
    15a2:	00f75733          	srl	a4,a4,a5
    15a6:	200007b7          	lui	a5,0x20000
    15aa:	44e7a023          	sw	a4,1088(a5) # 20000440 <SystemCoreClock>
    15ae:	0001                	nop
    15b0:	4472                	lw	s0,28(sp)
    15b2:	6105                	addi	sp,sp,32
    15b4:	8082                	ret

000015b6 <SetSysClock>:
    15b6:	1141                	addi	sp,sp,-16
    15b8:	c606                	sw	ra,12(sp)
    15ba:	c422                	sw	s0,8(sp)
    15bc:	0800                	addi	s0,sp,16
    15be:	2031                	jal	15ca <SetSysClockTo96_HSE>
    15c0:	0001                	nop
    15c2:	40b2                	lw	ra,12(sp)
    15c4:	4422                	lw	s0,8(sp)
    15c6:	0141                	addi	sp,sp,16
    15c8:	8082                	ret

000015ca <SetSysClockTo96_HSE>:
    15ca:	1101                	addi	sp,sp,-32
    15cc:	ce22                	sw	s0,28(sp)
    15ce:	1000                	addi	s0,sp,32
    15d0:	fe042623          	sw	zero,-20(s0)
    15d4:	fe042423          	sw	zero,-24(s0)
    15d8:	400217b7          	lui	a5,0x40021
    15dc:	4394                	lw	a3,0(a5)
    15de:	400217b7          	lui	a5,0x40021
    15e2:	6741                	lui	a4,0x10
    15e4:	8f55                	or	a4,a4,a3
    15e6:	c398                	sw	a4,0(a5)
    15e8:	400217b7          	lui	a5,0x40021
    15ec:	4398                	lw	a4,0(a5)
    15ee:	000207b7          	lui	a5,0x20
    15f2:	8ff9                	and	a5,a5,a4
    15f4:	fef42423          	sw	a5,-24(s0)
    15f8:	fec42783          	lw	a5,-20(s0)
    15fc:	0785                	addi	a5,a5,1
    15fe:	fef42623          	sw	a5,-20(s0)
    1602:	fe842783          	lw	a5,-24(s0)
    1606:	e791                	bnez	a5,1612 <SetSysClockTo96_HSE+0x48>
    1608:	fec42703          	lw	a4,-20(s0)
    160c:	6785                	lui	a5,0x1
    160e:	fcf71de3          	bne	a4,a5,15e8 <SetSysClockTo96_HSE+0x1e>
    1612:	400217b7          	lui	a5,0x40021
    1616:	4398                	lw	a4,0(a5)
    1618:	000207b7          	lui	a5,0x20
    161c:	8ff9                	and	a5,a5,a4
    161e:	c789                	beqz	a5,1628 <SetSysClockTo96_HSE+0x5e>
    1620:	4785                	li	a5,1
    1622:	fef42423          	sw	a5,-24(s0)
    1626:	a019                	j	162c <SetSysClockTo96_HSE+0x62>
    1628:	fe042423          	sw	zero,-24(s0)
    162c:	fe842703          	lw	a4,-24(s0)
    1630:	4785                	li	a5,1
    1632:	0af71263          	bne	a4,a5,16d6 <SetSysClockTo96_HSE+0x10c>
    1636:	40021737          	lui	a4,0x40021
    163a:	400217b7          	lui	a5,0x40021
    163e:	4358                	lw	a4,4(a4)
    1640:	c3d8                	sw	a4,4(a5)
    1642:	40021737          	lui	a4,0x40021
    1646:	400217b7          	lui	a5,0x40021
    164a:	4358                	lw	a4,4(a4)
    164c:	c3d8                	sw	a4,4(a5)
    164e:	400217b7          	lui	a5,0x40021
    1652:	43d8                	lw	a4,4(a5)
    1654:	400217b7          	lui	a5,0x40021
    1658:	40076713          	ori	a4,a4,1024
    165c:	c3d8                	sw	a4,4(a5)
    165e:	400217b7          	lui	a5,0x40021
    1662:	43d4                	lw	a3,4(a5)
    1664:	400217b7          	lui	a5,0x40021
    1668:	ffc10737          	lui	a4,0xffc10
    166c:	177d                	addi	a4,a4,-1
    166e:	8f75                	and	a4,a4,a3
    1670:	c3d8                	sw	a4,4(a5)
    1672:	400217b7          	lui	a5,0x40021
    1676:	43d4                	lw	a3,4(a5)
    1678:	400217b7          	lui	a5,0x40021
    167c:	00290737          	lui	a4,0x290
    1680:	8f55                	or	a4,a4,a3
    1682:	c3d8                	sw	a4,4(a5)
    1684:	400217b7          	lui	a5,0x40021
    1688:	4394                	lw	a3,0(a5)
    168a:	400217b7          	lui	a5,0x40021
    168e:	01000737          	lui	a4,0x1000
    1692:	8f55                	or	a4,a4,a3
    1694:	c398                	sw	a4,0(a5)
    1696:	0001                	nop
    1698:	400217b7          	lui	a5,0x40021
    169c:	4398                	lw	a4,0(a5)
    169e:	020007b7          	lui	a5,0x2000
    16a2:	8ff9                	and	a5,a5,a4
    16a4:	dbf5                	beqz	a5,1698 <SetSysClockTo96_HSE+0xce>
    16a6:	400217b7          	lui	a5,0x40021
    16aa:	43d8                	lw	a4,4(a5)
    16ac:	400217b7          	lui	a5,0x40021
    16b0:	9b71                	andi	a4,a4,-4
    16b2:	c3d8                	sw	a4,4(a5)
    16b4:	400217b7          	lui	a5,0x40021
    16b8:	43d8                	lw	a4,4(a5)
    16ba:	400217b7          	lui	a5,0x40021
    16be:	00276713          	ori	a4,a4,2
    16c2:	c3d8                	sw	a4,4(a5)
    16c4:	0001                	nop
    16c6:	400217b7          	lui	a5,0x40021
    16ca:	43dc                	lw	a5,4(a5)
    16cc:	00c7f713          	andi	a4,a5,12
    16d0:	47a1                	li	a5,8
    16d2:	fef71ae3          	bne	a4,a5,16c6 <SetSysClockTo96_HSE+0xfc>
    16d6:	0001                	nop
    16d8:	4472                	lw	s0,28(sp)
    16da:	6105                	addi	sp,sp,32
    16dc:	8082                	ret

000016de <UART2_SendReport>:
    16de:	7179                	addi	sp,sp,-48
    16e0:	d606                	sw	ra,44(sp)
    16e2:	d422                	sw	s0,40(sp)
    16e4:	1800                	addi	s0,sp,48
    16e6:	fca42e23          	sw	a0,-36(s0)
    16ea:	08000593          	li	a1,128
    16ee:	400047b7          	lui	a5,0x40004
    16f2:	40078513          	addi	a0,a5,1024 # 40004400 <_eusrstack+0x1fffc400>
    16f6:	1cb020ef          	jal	ra,40c0 <USART_SendData>
    16fa:	0001                	nop
    16fc:	08000593          	li	a1,128
    1700:	400047b7          	lui	a5,0x40004
    1704:	40078513          	addi	a0,a5,1024 # 40004400 <_eusrstack+0x1fffc400>
    1708:	1e5020ef          	jal	ra,40ec <USART_GetFlagStatus>
    170c:	87aa                	mv	a5,a0
    170e:	d7fd                	beqz	a5,16fc <UART2_SendReport+0x1e>
    1710:	fe0407a3          	sb	zero,-17(s0)
    1714:	a081                	j	1754 <UART2_SendReport+0x76>
    1716:	fef44783          	lbu	a5,-17(s0)
    171a:	fdc42703          	lw	a4,-36(s0)
    171e:	97ba                	add	a5,a5,a4
    1720:	239c                	lbu	a5,0(a5)
    1722:	07c2                	slli	a5,a5,0x10
    1724:	83c1                	srli	a5,a5,0x10
    1726:	85be                	mv	a1,a5
    1728:	400047b7          	lui	a5,0x40004
    172c:	40078513          	addi	a0,a5,1024 # 40004400 <_eusrstack+0x1fffc400>
    1730:	191020ef          	jal	ra,40c0 <USART_SendData>
    1734:	0001                	nop
    1736:	08000593          	li	a1,128
    173a:	400047b7          	lui	a5,0x40004
    173e:	40078513          	addi	a0,a5,1024 # 40004400 <_eusrstack+0x1fffc400>
    1742:	1ab020ef          	jal	ra,40ec <USART_GetFlagStatus>
    1746:	87aa                	mv	a5,a0
    1748:	d7fd                	beqz	a5,1736 <UART2_SendReport+0x58>
    174a:	fef44783          	lbu	a5,-17(s0)
    174e:	0785                	addi	a5,a5,1
    1750:	fef407a3          	sb	a5,-17(s0)
    1754:	fef44703          	lbu	a4,-17(s0)
    1758:	479d                	li	a5,7
    175a:	fae7fee3          	bgeu	a5,a4,1716 <UART2_SendReport+0x38>
    175e:	0001                	nop
    1760:	50b2                	lw	ra,44(sp)
    1762:	5422                	lw	s0,40(sp)
    1764:	6145                	addi	sp,sp,48
    1766:	8082                	ret

00001768 <Keyboard_IO_Init>:
    1768:	1101                	addi	sp,sp,-32
    176a:	ce06                	sw	ra,28(sp)
    176c:	cc22                	sw	s0,24(sp)
    176e:	1000                	addi	s0,sp,32
    1770:	4585                	li	a1,1
    1772:	06000513          	li	a0,96
    1776:	62f010ef          	jal	ra,35a4 <RCC_APB2PeriphClockCmd>
    177a:	03f00793          	li	a5,63
    177e:	fef41223          	sh	a5,-28(s0)
    1782:	478d                	li	a5,3
    1784:	fef42423          	sw	a5,-24(s0)
    1788:	47d1                	li	a5,20
    178a:	fef42623          	sw	a5,-20(s0)
    178e:	fe440793          	addi	a5,s0,-28
    1792:	85be                	mv	a1,a5
    1794:	400117b7          	lui	a5,0x40011
    1798:	40078513          	addi	a0,a5,1024 # 40011400 <_eusrstack+0x20009400>
    179c:	2fa010ef          	jal	ra,2a96 <GPIO_Init>
    17a0:	03f00593          	li	a1,63
    17a4:	400117b7          	lui	a5,0x40011
    17a8:	40078513          	addi	a0,a5,1024 # 40011400 <_eusrstack+0x20009400>
    17ac:	546010ef          	jal	ra,2cf2 <GPIO_SetBits>
    17b0:	f8000793          	li	a5,-128
    17b4:	fef41223          	sh	a5,-28(s0)
    17b8:	04800793          	li	a5,72
    17bc:	fef42623          	sw	a5,-20(s0)
    17c0:	fe440793          	addi	a5,s0,-28
    17c4:	85be                	mv	a1,a5
    17c6:	400127b7          	lui	a5,0x40012
    17ca:	80078513          	addi	a0,a5,-2048 # 40011800 <_eusrstack+0x20009800>
    17ce:	2c8010ef          	jal	ra,2a96 <GPIO_Init>
    17d2:	f4000793          	li	a5,-192
    17d6:	fef41223          	sh	a5,-28(s0)
    17da:	04800793          	li	a5,72
    17de:	fef42623          	sw	a5,-20(s0)
    17e2:	fe440793          	addi	a5,s0,-28
    17e6:	85be                	mv	a1,a5
    17e8:	400117b7          	lui	a5,0x40011
    17ec:	40078513          	addi	a0,a5,1024 # 40011400 <_eusrstack+0x20009400>
    17f0:	2a6010ef          	jal	ra,2a96 <GPIO_Init>
    17f4:	08000793          	li	a5,128
    17f8:	fef41223          	sh	a5,-28(s0)
    17fc:	478d                	li	a5,3
    17fe:	fef42423          	sw	a5,-24(s0)
    1802:	02800793          	li	a5,40
    1806:	fef42623          	sw	a5,-20(s0)
    180a:	fe440793          	addi	a5,s0,-28
    180e:	85be                	mv	a1,a5
    1810:	400117b7          	lui	a5,0x40011
    1814:	40078513          	addi	a0,a5,1024 # 40011400 <_eusrstack+0x20009400>
    1818:	27e010ef          	jal	ra,2a96 <GPIO_Init>
    181c:	08000593          	li	a1,128
    1820:	400117b7          	lui	a5,0x40011
    1824:	40078513          	addi	a0,a5,1024 # 40011400 <_eusrstack+0x20009400>
    1828:	4ec010ef          	jal	ra,2d14 <GPIO_ResetBits>
    182c:	0001                	nop
    182e:	40f2                	lw	ra,28(sp)
    1830:	4462                	lw	s0,24(sp)
    1832:	6105                	addi	sp,sp,32
    1834:	8082                	ret

00001836 <Read_Columns>:
    1836:	1101                	addi	sp,sp,-32
    1838:	ce06                	sw	ra,28(sp)
    183a:	cc22                	sw	s0,24(sp)
    183c:	1000                	addi	s0,sp,32
    183e:	fe042623          	sw	zero,-20(s0)
    1842:	fe042423          	sw	zero,-24(s0)
    1846:	a091                	j	188a <Read_Columns+0x54>
    1848:	fe842783          	lw	a5,-24(s0)
    184c:	08000713          	li	a4,128
    1850:	00f717b3          	sll	a5,a4,a5
    1854:	07c2                	slli	a5,a5,0x10
    1856:	83c1                	srli	a5,a5,0x10
    1858:	85be                	mv	a1,a5
    185a:	400127b7          	lui	a5,0x40012
    185e:	80078513          	addi	a0,a5,-2048 # 40011800 <_eusrstack+0x20009800>
    1862:	456010ef          	jal	ra,2cb8 <GPIO_ReadInputDataBit>
    1866:	87aa                	mv	a5,a0
    1868:	ef81                	bnez	a5,1880 <Read_Columns+0x4a>
    186a:	fe842783          	lw	a5,-24(s0)
    186e:	4705                	li	a4,1
    1870:	00f717b3          	sll	a5,a4,a5
    1874:	873e                	mv	a4,a5
    1876:	fec42783          	lw	a5,-20(s0)
    187a:	8fd9                	or	a5,a5,a4
    187c:	fef42623          	sw	a5,-20(s0)
    1880:	fe842783          	lw	a5,-24(s0)
    1884:	0785                	addi	a5,a5,1
    1886:	fef42423          	sw	a5,-24(s0)
    188a:	fe842703          	lw	a4,-24(s0)
    188e:	47a1                	li	a5,8
    1890:	fae7fce3          	bgeu	a5,a4,1848 <Read_Columns+0x12>
    1894:	fe042223          	sw	zero,-28(s0)
    1898:	a099                	j	18de <Read_Columns+0xa8>
    189a:	fe442783          	lw	a5,-28(s0)
    189e:	10000713          	li	a4,256
    18a2:	00f717b3          	sll	a5,a4,a5
    18a6:	07c2                	slli	a5,a5,0x10
    18a8:	83c1                	srli	a5,a5,0x10
    18aa:	85be                	mv	a1,a5
    18ac:	400117b7          	lui	a5,0x40011
    18b0:	40078513          	addi	a0,a5,1024 # 40011400 <_eusrstack+0x20009400>
    18b4:	404010ef          	jal	ra,2cb8 <GPIO_ReadInputDataBit>
    18b8:	87aa                	mv	a5,a0
    18ba:	ef89                	bnez	a5,18d4 <Read_Columns+0x9e>
    18bc:	fe442783          	lw	a5,-28(s0)
    18c0:	07a5                	addi	a5,a5,9
    18c2:	4705                	li	a4,1
    18c4:	00f717b3          	sll	a5,a4,a5
    18c8:	873e                	mv	a4,a5
    18ca:	fec42783          	lw	a5,-20(s0)
    18ce:	8fd9                	or	a5,a5,a4
    18d0:	fef42623          	sw	a5,-20(s0)
    18d4:	fe442783          	lw	a5,-28(s0)
    18d8:	0785                	addi	a5,a5,1
    18da:	fef42223          	sw	a5,-28(s0)
    18de:	fe442703          	lw	a4,-28(s0)
    18e2:	479d                	li	a5,7
    18e4:	fae7fbe3          	bgeu	a5,a4,189a <Read_Columns+0x64>
    18e8:	04000593          	li	a1,64
    18ec:	400117b7          	lui	a5,0x40011
    18f0:	40078513          	addi	a0,a5,1024 # 40011400 <_eusrstack+0x20009400>
    18f4:	3c4010ef          	jal	ra,2cb8 <GPIO_ReadInputDataBit>
    18f8:	87aa                	mv	a5,a0
    18fa:	eb81                	bnez	a5,190a <Read_Columns+0xd4>
    18fc:	fec42703          	lw	a4,-20(s0)
    1900:	000207b7          	lui	a5,0x20
    1904:	8fd9                	or	a5,a5,a4
    1906:	fef42623          	sw	a5,-20(s0)
    190a:	fec42783          	lw	a5,-20(s0)
    190e:	853e                	mv	a0,a5
    1910:	40f2                	lw	ra,28(sp)
    1912:	4462                	lw	s0,24(sp)
    1914:	6105                	addi	sp,sp,32
    1916:	8082                	ret

00001918 <Drive_Row_Low>:
    1918:	7179                	addi	sp,sp,-48
    191a:	d606                	sw	ra,44(sp)
    191c:	d422                	sw	s0,40(sp)
    191e:	1800                	addi	s0,sp,48
    1920:	87aa                	mv	a5,a0
    1922:	fcf40fa3          	sb	a5,-33(s0)
    1926:	fe0407a3          	sb	zero,-17(s0)
    192a:	a889                	j	197c <Drive_Row_Low+0x64>
    192c:	fef44703          	lbu	a4,-17(s0)
    1930:	fdf44783          	lbu	a5,-33(s0)
    1934:	02f71163          	bne	a4,a5,1956 <Drive_Row_Low+0x3e>
    1938:	fef44783          	lbu	a5,-17(s0)
    193c:	4705                	li	a4,1
    193e:	00f717b3          	sll	a5,a4,a5
    1942:	07c2                	slli	a5,a5,0x10
    1944:	83c1                	srli	a5,a5,0x10
    1946:	85be                	mv	a1,a5
    1948:	400117b7          	lui	a5,0x40011
    194c:	40078513          	addi	a0,a5,1024 # 40011400 <_eusrstack+0x20009400>
    1950:	3c4010ef          	jal	ra,2d14 <GPIO_ResetBits>
    1954:	a839                	j	1972 <Drive_Row_Low+0x5a>
    1956:	fef44783          	lbu	a5,-17(s0)
    195a:	4705                	li	a4,1
    195c:	00f717b3          	sll	a5,a4,a5
    1960:	07c2                	slli	a5,a5,0x10
    1962:	83c1                	srli	a5,a5,0x10
    1964:	85be                	mv	a1,a5
    1966:	400117b7          	lui	a5,0x40011
    196a:	40078513          	addi	a0,a5,1024 # 40011400 <_eusrstack+0x20009400>
    196e:	384010ef          	jal	ra,2cf2 <GPIO_SetBits>
    1972:	fef44783          	lbu	a5,-17(s0)
    1976:	0785                	addi	a5,a5,1
    1978:	fef407a3          	sb	a5,-17(s0)
    197c:	fef44703          	lbu	a4,-17(s0)
    1980:	4795                	li	a5,5
    1982:	fae7f5e3          	bgeu	a5,a4,192c <Drive_Row_Low+0x14>
    1986:	0001                	nop
    1988:	50b2                	lw	ra,44(sp)
    198a:	5422                	lw	s0,40(sp)
    198c:	6145                	addi	sp,sp,48
    198e:	8082                	ret

00001990 <KB_Scan>:
    1990:	7179                	addi	sp,sp,-48
    1992:	d606                	sw	ra,44(sp)
    1994:	d422                	sw	s0,40(sp)
    1996:	1800                	addi	s0,sp,48
    1998:	fe0407a3          	sb	zero,-17(s0)
    199c:	a845                	j	1a4c <KB_Scan+0xbc>
    199e:	fef44783          	lbu	a5,-17(s0)
    19a2:	853e                	mv	a0,a5
    19a4:	3f95                	jal	1918 <Drive_Row_Low>
    19a6:	fc042e23          	sw	zero,-36(s0)
    19aa:	a031                	j	19b6 <KB_Scan+0x26>
    19ac:	fdc42783          	lw	a5,-36(s0)
    19b0:	0785                	addi	a5,a5,1
    19b2:	fcf42e23          	sw	a5,-36(s0)
    19b6:	fdc42703          	lw	a4,-36(s0)
    19ba:	06300793          	li	a5,99
    19be:	fee7d7e3          	bge	a5,a4,19ac <KB_Scan+0x1c>
    19c2:	3d95                	jal	1836 <Read_Columns>
    19c4:	fea42223          	sw	a0,-28(s0)
    19c8:	fe042423          	sw	zero,-24(s0)
    19cc:	a0b5                	j	1a38 <KB_Scan+0xa8>
    19ce:	fef44703          	lbu	a4,-17(s0)
    19d2:	87ba                	mv	a5,a4
    19d4:	078e                	slli	a5,a5,0x3
    19d6:	97ba                	add	a5,a5,a4
    19d8:	0786                	slli	a5,a5,0x1
    19da:	873e                	mv	a4,a5
    19dc:	fe842783          	lw	a5,-24(s0)
    19e0:	97ba                	add	a5,a5,a4
    19e2:	fef42023          	sw	a5,-32(s0)
    19e6:	fef44703          	lbu	a4,-17(s0)
    19ea:	200006b7          	lui	a3,0x20000
    19ee:	87ba                	mv	a5,a4
    19f0:	078e                	slli	a5,a5,0x3
    19f2:	97ba                	add	a5,a5,a4
    19f4:	0786                	slli	a5,a5,0x1
    19f6:	01068713          	addi	a4,a3,16 # 20000010 <key_matrix>
    19fa:	973e                	add	a4,a4,a5
    19fc:	fe842783          	lw	a5,-24(s0)
    1a00:	97ba                	add	a5,a5,a4
    1a02:	239c                	lbu	a5,0(a5)
    1a04:	c78d                	beqz	a5,1a2e <KB_Scan+0x9e>
    1a06:	fe842783          	lw	a5,-24(s0)
    1a0a:	4705                	li	a4,1
    1a0c:	00f717b3          	sll	a5,a4,a5
    1a10:	873e                	mv	a4,a5
    1a12:	fe442783          	lw	a5,-28(s0)
    1a16:	8ff9                	and	a5,a5,a4
    1a18:	00f037b3          	snez	a5,a5
    1a1c:	0ff7f793          	andi	a5,a5,255
    1a20:	86be                	mv	a3,a5
    1a22:	91818713          	addi	a4,gp,-1768 # 20000558 <key_state>
    1a26:	fe042783          	lw	a5,-32(s0)
    1a2a:	97ba                	add	a5,a5,a4
    1a2c:	a394                	sb	a3,0(a5)
    1a2e:	fe842783          	lw	a5,-24(s0)
    1a32:	0785                	addi	a5,a5,1
    1a34:	fef42423          	sw	a5,-24(s0)
    1a38:	fe842703          	lw	a4,-24(s0)
    1a3c:	47c5                	li	a5,17
    1a3e:	f8e7f8e3          	bgeu	a5,a4,19ce <KB_Scan+0x3e>
    1a42:	fef44783          	lbu	a5,-17(s0)
    1a46:	0785                	addi	a5,a5,1
    1a48:	fef407a3          	sb	a5,-17(s0)
    1a4c:	fef44703          	lbu	a4,-17(s0)
    1a50:	4795                	li	a5,5
    1a52:	f4e7f6e3          	bgeu	a5,a4,199e <KB_Scan+0xe>
    1a56:	03f00593          	li	a1,63
    1a5a:	400117b7          	lui	a5,0x40011
    1a5e:	40078513          	addi	a0,a5,1024 # 40011400 <_eusrstack+0x20009400>
    1a62:	290010ef          	jal	ra,2cf2 <GPIO_SetBits>
    1a66:	0001                	nop
    1a68:	50b2                	lw	ra,44(sp)
    1a6a:	5422                	lw	s0,40(sp)
    1a6c:	6145                	addi	sp,sp,48
    1a6e:	8082                	ret

00001a70 <KB_Scan_Handle>:
    1a70:	7179                	addi	sp,sp,-48
    1a72:	d606                	sw	ra,44(sp)
    1a74:	d422                	sw	s0,40(sp)
    1a76:	1800                	addi	s0,sp,48
    1a78:	fe0407a3          	sb	zero,-17(s0)
    1a7c:	fe040723          	sb	zero,-18(s0)
    1a80:	fe0406a3          	sb	zero,-19(s0)
    1a84:	a17d                	j	1f32 <KB_Scan_Handle+0x4c2>
    1a86:	fed44703          	lbu	a4,-19(s0)
    1a8a:	91818793          	addi	a5,gp,-1768 # 20000558 <key_state>
    1a8e:	97ba                	add	a5,a5,a4
    1a90:	239c                	lbu	a5,0(a5)
    1a92:	c7a9                	beqz	a5,1adc <KB_Scan_Handle+0x6c>
    1a94:	fed44703          	lbu	a4,-19(s0)
    1a98:	47c9                	li	a5,18
    1a9a:	02f757b3          	divu	a5,a4,a5
    1a9e:	0ff7f793          	andi	a5,a5,255
    1aa2:	86be                	mv	a3,a5
    1aa4:	fed44703          	lbu	a4,-19(s0)
    1aa8:	47c9                	li	a5,18
    1aaa:	02f777b3          	remu	a5,a4,a5
    1aae:	0ff7f793          	andi	a5,a5,255
    1ab2:	863e                	mv	a2,a5
    1ab4:	20000737          	lui	a4,0x20000
    1ab8:	87b6                	mv	a5,a3
    1aba:	078e                	slli	a5,a5,0x3
    1abc:	97b6                	add	a5,a5,a3
    1abe:	0786                	slli	a5,a5,0x1
    1ac0:	01070713          	addi	a4,a4,16 # 20000010 <key_matrix>
    1ac4:	97ba                	add	a5,a5,a4
    1ac6:	97b2                	add	a5,a5,a2
    1ac8:	2398                	lbu	a4,0(a5)
    1aca:	4789                	li	a5,2
    1acc:	00f71863          	bne	a4,a5,1adc <KB_Scan_Handle+0x6c>
    1ad0:	4789                	li	a5,2
    1ad2:	fef407a3          	sb	a5,-17(s0)
    1ad6:	7d6030ef          	jal	ra,52ac <System_1>
    1ada:	aacd                	j	1ccc <KB_Scan_Handle+0x25c>
    1adc:	fed44703          	lbu	a4,-19(s0)
    1ae0:	91818793          	addi	a5,gp,-1768 # 20000558 <key_state>
    1ae4:	97ba                	add	a5,a5,a4
    1ae6:	239c                	lbu	a5,0(a5)
    1ae8:	c3b9                	beqz	a5,1b2e <KB_Scan_Handle+0xbe>
    1aea:	fed44703          	lbu	a4,-19(s0)
    1aee:	47c9                	li	a5,18
    1af0:	02f757b3          	divu	a5,a4,a5
    1af4:	0ff7f793          	andi	a5,a5,255
    1af8:	86be                	mv	a3,a5
    1afa:	fed44703          	lbu	a4,-19(s0)
    1afe:	47c9                	li	a5,18
    1b00:	02f777b3          	remu	a5,a4,a5
    1b04:	0ff7f793          	andi	a5,a5,255
    1b08:	863e                	mv	a2,a5
    1b0a:	20000737          	lui	a4,0x20000
    1b0e:	87b6                	mv	a5,a3
    1b10:	078e                	slli	a5,a5,0x3
    1b12:	97b6                	add	a5,a5,a3
    1b14:	0786                	slli	a5,a5,0x1
    1b16:	01070713          	addi	a4,a4,16 # 20000010 <key_matrix>
    1b1a:	97ba                	add	a5,a5,a4
    1b1c:	97b2                	add	a5,a5,a2
    1b1e:	2398                	lbu	a4,0(a5)
    1b20:	4785                	li	a5,1
    1b22:	00f71663          	bne	a4,a5,1b2e <KB_Scan_Handle+0xbe>
    1b26:	4785                	li	a5,1
    1b28:	fef407a3          	sb	a5,-17(s0)
    1b2c:	a245                	j	1ccc <KB_Scan_Handle+0x25c>
    1b2e:	fed44703          	lbu	a4,-19(s0)
    1b32:	91818793          	addi	a5,gp,-1768 # 20000558 <key_state>
    1b36:	97ba                	add	a5,a5,a4
    1b38:	239c                	lbu	a5,0(a5)
    1b3a:	c3b9                	beqz	a5,1b80 <KB_Scan_Handle+0x110>
    1b3c:	fed44703          	lbu	a4,-19(s0)
    1b40:	47c9                	li	a5,18
    1b42:	02f757b3          	divu	a5,a4,a5
    1b46:	0ff7f793          	andi	a5,a5,255
    1b4a:	86be                	mv	a3,a5
    1b4c:	fed44703          	lbu	a4,-19(s0)
    1b50:	47c9                	li	a5,18
    1b52:	02f777b3          	remu	a5,a4,a5
    1b56:	0ff7f793          	andi	a5,a5,255
    1b5a:	863e                	mv	a2,a5
    1b5c:	20000737          	lui	a4,0x20000
    1b60:	87b6                	mv	a5,a3
    1b62:	078e                	slli	a5,a5,0x3
    1b64:	97b6                	add	a5,a5,a3
    1b66:	0786                	slli	a5,a5,0x1
    1b68:	01070713          	addi	a4,a4,16 # 20000010 <key_matrix>
    1b6c:	97ba                	add	a5,a5,a4
    1b6e:	97b2                	add	a5,a5,a2
    1b70:	2398                	lbu	a4,0(a5)
    1b72:	4791                	li	a5,4
    1b74:	00f71663          	bne	a4,a5,1b80 <KB_Scan_Handle+0x110>
    1b78:	4791                	li	a5,4
    1b7a:	fef407a3          	sb	a5,-17(s0)
    1b7e:	a2b9                	j	1ccc <KB_Scan_Handle+0x25c>
    1b80:	fed44703          	lbu	a4,-19(s0)
    1b84:	91818793          	addi	a5,gp,-1768 # 20000558 <key_state>
    1b88:	97ba                	add	a5,a5,a4
    1b8a:	239c                	lbu	a5,0(a5)
    1b8c:	c3b9                	beqz	a5,1bd2 <KB_Scan_Handle+0x162>
    1b8e:	fed44703          	lbu	a4,-19(s0)
    1b92:	47c9                	li	a5,18
    1b94:	02f757b3          	divu	a5,a4,a5
    1b98:	0ff7f793          	andi	a5,a5,255
    1b9c:	86be                	mv	a3,a5
    1b9e:	fed44703          	lbu	a4,-19(s0)
    1ba2:	47c9                	li	a5,18
    1ba4:	02f777b3          	remu	a5,a4,a5
    1ba8:	0ff7f793          	andi	a5,a5,255
    1bac:	863e                	mv	a2,a5
    1bae:	20000737          	lui	a4,0x20000
    1bb2:	87b6                	mv	a5,a3
    1bb4:	078e                	slli	a5,a5,0x3
    1bb6:	97b6                	add	a5,a5,a3
    1bb8:	0786                	slli	a5,a5,0x1
    1bba:	01070713          	addi	a4,a4,16 # 20000010 <key_matrix>
    1bbe:	97ba                	add	a5,a5,a4
    1bc0:	97b2                	add	a5,a5,a2
    1bc2:	2398                	lbu	a4,0(a5)
    1bc4:	47c1                	li	a5,16
    1bc6:	00f71663          	bne	a4,a5,1bd2 <KB_Scan_Handle+0x162>
    1bca:	47c1                	li	a5,16
    1bcc:	fef407a3          	sb	a5,-17(s0)
    1bd0:	a8f5                	j	1ccc <KB_Scan_Handle+0x25c>
    1bd2:	fed44703          	lbu	a4,-19(s0)
    1bd6:	91818793          	addi	a5,gp,-1768 # 20000558 <key_state>
    1bda:	97ba                	add	a5,a5,a4
    1bdc:	239c                	lbu	a5,0(a5)
    1bde:	c7a9                	beqz	a5,1c28 <KB_Scan_Handle+0x1b8>
    1be0:	fed44703          	lbu	a4,-19(s0)
    1be4:	47c9                	li	a5,18
    1be6:	02f757b3          	divu	a5,a4,a5
    1bea:	0ff7f793          	andi	a5,a5,255
    1bee:	86be                	mv	a3,a5
    1bf0:	fed44703          	lbu	a4,-19(s0)
    1bf4:	47c9                	li	a5,18
    1bf6:	02f777b3          	remu	a5,a4,a5
    1bfa:	0ff7f793          	andi	a5,a5,255
    1bfe:	863e                	mv	a2,a5
    1c00:	20000737          	lui	a4,0x20000
    1c04:	87b6                	mv	a5,a3
    1c06:	078e                	slli	a5,a5,0x3
    1c08:	97b6                	add	a5,a5,a3
    1c0a:	0786                	slli	a5,a5,0x1
    1c0c:	01070713          	addi	a4,a4,16 # 20000010 <key_matrix>
    1c10:	97ba                	add	a5,a5,a4
    1c12:	97b2                	add	a5,a5,a2
    1c14:	2398                	lbu	a4,0(a5)
    1c16:	02000793          	li	a5,32
    1c1a:	00f71763          	bne	a4,a5,1c28 <KB_Scan_Handle+0x1b8>
    1c1e:	02000793          	li	a5,32
    1c22:	fef407a3          	sb	a5,-17(s0)
    1c26:	a05d                	j	1ccc <KB_Scan_Handle+0x25c>
    1c28:	fed44703          	lbu	a4,-19(s0)
    1c2c:	91818793          	addi	a5,gp,-1768 # 20000558 <key_state>
    1c30:	97ba                	add	a5,a5,a4
    1c32:	239c                	lbu	a5,0(a5)
    1c34:	c3b9                	beqz	a5,1c7a <KB_Scan_Handle+0x20a>
    1c36:	fed44703          	lbu	a4,-19(s0)
    1c3a:	47c9                	li	a5,18
    1c3c:	02f757b3          	divu	a5,a4,a5
    1c40:	0ff7f793          	andi	a5,a5,255
    1c44:	86be                	mv	a3,a5
    1c46:	fed44703          	lbu	a4,-19(s0)
    1c4a:	47c9                	li	a5,18
    1c4c:	02f777b3          	remu	a5,a4,a5
    1c50:	0ff7f793          	andi	a5,a5,255
    1c54:	863e                	mv	a2,a5
    1c56:	20000737          	lui	a4,0x20000
    1c5a:	87b6                	mv	a5,a3
    1c5c:	078e                	slli	a5,a5,0x3
    1c5e:	97b6                	add	a5,a5,a3
    1c60:	0786                	slli	a5,a5,0x1
    1c62:	01070713          	addi	a4,a4,16 # 20000010 <key_matrix>
    1c66:	97ba                	add	a5,a5,a4
    1c68:	97b2                	add	a5,a5,a2
    1c6a:	2398                	lbu	a4,0(a5)
    1c6c:	47a1                	li	a5,8
    1c6e:	00f71663          	bne	a4,a5,1c7a <KB_Scan_Handle+0x20a>
    1c72:	47a1                	li	a5,8
    1c74:	fef407a3          	sb	a5,-17(s0)
    1c78:	a891                	j	1ccc <KB_Scan_Handle+0x25c>
    1c7a:	fed44703          	lbu	a4,-19(s0)
    1c7e:	91818793          	addi	a5,gp,-1768 # 20000558 <key_state>
    1c82:	97ba                	add	a5,a5,a4
    1c84:	239c                	lbu	a5,0(a5)
    1c86:	c3b9                	beqz	a5,1ccc <KB_Scan_Handle+0x25c>
    1c88:	fed44703          	lbu	a4,-19(s0)
    1c8c:	47c9                	li	a5,18
    1c8e:	02f757b3          	divu	a5,a4,a5
    1c92:	0ff7f793          	andi	a5,a5,255
    1c96:	86be                	mv	a3,a5
    1c98:	fed44703          	lbu	a4,-19(s0)
    1c9c:	47c9                	li	a5,18
    1c9e:	02f777b3          	remu	a5,a4,a5
    1ca2:	0ff7f793          	andi	a5,a5,255
    1ca6:	863e                	mv	a2,a5
    1ca8:	20000737          	lui	a4,0x20000
    1cac:	87b6                	mv	a5,a3
    1cae:	078e                	slli	a5,a5,0x3
    1cb0:	97b6                	add	a5,a5,a3
    1cb2:	0786                	slli	a5,a5,0x1
    1cb4:	01070713          	addi	a4,a4,16 # 20000010 <key_matrix>
    1cb8:	97ba                	add	a5,a5,a4
    1cba:	97b2                	add	a5,a5,a2
    1cbc:	2398                	lbu	a4,0(a5)
    1cbe:	0ff00793          	li	a5,255
    1cc2:	00f71563          	bne	a4,a5,1ccc <KB_Scan_Handle+0x25c>
    1cc6:	57fd                	li	a5,-1
    1cc8:	fef407a3          	sb	a5,-17(s0)
    1ccc:	fed44703          	lbu	a4,-19(s0)
    1cd0:	91818793          	addi	a5,gp,-1768 # 20000558 <key_state>
    1cd4:	97ba                	add	a5,a5,a4
    1cd6:	239c                	lbu	a5,0(a5)
    1cd8:	24078863          	beqz	a5,1f28 <KB_Scan_Handle+0x4b8>
    1cdc:	fed44703          	lbu	a4,-19(s0)
    1ce0:	47c9                	li	a5,18
    1ce2:	02f757b3          	divu	a5,a4,a5
    1ce6:	0ff7f793          	andi	a5,a5,255
    1cea:	86be                	mv	a3,a5
    1cec:	fed44703          	lbu	a4,-19(s0)
    1cf0:	47c9                	li	a5,18
    1cf2:	02f777b3          	remu	a5,a4,a5
    1cf6:	0ff7f793          	andi	a5,a5,255
    1cfa:	863e                	mv	a2,a5
    1cfc:	20000737          	lui	a4,0x20000
    1d00:	87b6                	mv	a5,a3
    1d02:	078e                	slli	a5,a5,0x3
    1d04:	97b6                	add	a5,a5,a3
    1d06:	0786                	slli	a5,a5,0x1
    1d08:	01070713          	addi	a4,a4,16 # 20000010 <key_matrix>
    1d0c:	97ba                	add	a5,a5,a4
    1d0e:	97b2                	add	a5,a5,a2
    1d10:	239c                	lbu	a5,0(a5)
    1d12:	20078b63          	beqz	a5,1f28 <KB_Scan_Handle+0x4b8>
    1d16:	fed44703          	lbu	a4,-19(s0)
    1d1a:	91818793          	addi	a5,gp,-1768 # 20000558 <key_state>
    1d1e:	97ba                	add	a5,a5,a4
    1d20:	239c                	lbu	a5,0(a5)
    1d22:	20078363          	beqz	a5,1f28 <KB_Scan_Handle+0x4b8>
    1d26:	fed44703          	lbu	a4,-19(s0)
    1d2a:	47c9                	li	a5,18
    1d2c:	02f757b3          	divu	a5,a4,a5
    1d30:	0ff7f793          	andi	a5,a5,255
    1d34:	86be                	mv	a3,a5
    1d36:	fed44703          	lbu	a4,-19(s0)
    1d3a:	47c9                	li	a5,18
    1d3c:	02f777b3          	remu	a5,a4,a5
    1d40:	0ff7f793          	andi	a5,a5,255
    1d44:	863e                	mv	a2,a5
    1d46:	20000737          	lui	a4,0x20000
    1d4a:	87b6                	mv	a5,a3
    1d4c:	078e                	slli	a5,a5,0x3
    1d4e:	97b6                	add	a5,a5,a3
    1d50:	0786                	slli	a5,a5,0x1
    1d52:	01070713          	addi	a4,a4,16 # 20000010 <key_matrix>
    1d56:	97ba                	add	a5,a5,a4
    1d58:	97b2                	add	a5,a5,a2
    1d5a:	2398                	lbu	a4,0(a5)
    1d5c:	4785                	li	a5,1
    1d5e:	1cf70563          	beq	a4,a5,1f28 <KB_Scan_Handle+0x4b8>
    1d62:	fed44703          	lbu	a4,-19(s0)
    1d66:	47c9                	li	a5,18
    1d68:	02f757b3          	divu	a5,a4,a5
    1d6c:	0ff7f793          	andi	a5,a5,255
    1d70:	86be                	mv	a3,a5
    1d72:	fed44703          	lbu	a4,-19(s0)
    1d76:	47c9                	li	a5,18
    1d78:	02f777b3          	remu	a5,a4,a5
    1d7c:	0ff7f793          	andi	a5,a5,255
    1d80:	863e                	mv	a2,a5
    1d82:	20000737          	lui	a4,0x20000
    1d86:	87b6                	mv	a5,a3
    1d88:	078e                	slli	a5,a5,0x3
    1d8a:	97b6                	add	a5,a5,a3
    1d8c:	0786                	slli	a5,a5,0x1
    1d8e:	01070713          	addi	a4,a4,16 # 20000010 <key_matrix>
    1d92:	97ba                	add	a5,a5,a4
    1d94:	97b2                	add	a5,a5,a2
    1d96:	2398                	lbu	a4,0(a5)
    1d98:	4789                	li	a5,2
    1d9a:	18f70763          	beq	a4,a5,1f28 <KB_Scan_Handle+0x4b8>
    1d9e:	fed44703          	lbu	a4,-19(s0)
    1da2:	47c9                	li	a5,18
    1da4:	02f757b3          	divu	a5,a4,a5
    1da8:	0ff7f793          	andi	a5,a5,255
    1dac:	86be                	mv	a3,a5
    1dae:	fed44703          	lbu	a4,-19(s0)
    1db2:	47c9                	li	a5,18
    1db4:	02f777b3          	remu	a5,a4,a5
    1db8:	0ff7f793          	andi	a5,a5,255
    1dbc:	863e                	mv	a2,a5
    1dbe:	20000737          	lui	a4,0x20000
    1dc2:	87b6                	mv	a5,a3
    1dc4:	078e                	slli	a5,a5,0x3
    1dc6:	97b6                	add	a5,a5,a3
    1dc8:	0786                	slli	a5,a5,0x1
    1dca:	01070713          	addi	a4,a4,16 # 20000010 <key_matrix>
    1dce:	97ba                	add	a5,a5,a4
    1dd0:	97b2                	add	a5,a5,a2
    1dd2:	2398                	lbu	a4,0(a5)
    1dd4:	47c1                	li	a5,16
    1dd6:	14f70963          	beq	a4,a5,1f28 <KB_Scan_Handle+0x4b8>
    1dda:	fed44703          	lbu	a4,-19(s0)
    1dde:	47c9                	li	a5,18
    1de0:	02f757b3          	divu	a5,a4,a5
    1de4:	0ff7f793          	andi	a5,a5,255
    1de8:	86be                	mv	a3,a5
    1dea:	fed44703          	lbu	a4,-19(s0)
    1dee:	47c9                	li	a5,18
    1df0:	02f777b3          	remu	a5,a4,a5
    1df4:	0ff7f793          	andi	a5,a5,255
    1df8:	863e                	mv	a2,a5
    1dfa:	20000737          	lui	a4,0x20000
    1dfe:	87b6                	mv	a5,a3
    1e00:	078e                	slli	a5,a5,0x3
    1e02:	97b6                	add	a5,a5,a3
    1e04:	0786                	slli	a5,a5,0x1
    1e06:	01070713          	addi	a4,a4,16 # 20000010 <key_matrix>
    1e0a:	97ba                	add	a5,a5,a4
    1e0c:	97b2                	add	a5,a5,a2
    1e0e:	2398                	lbu	a4,0(a5)
    1e10:	02000793          	li	a5,32
    1e14:	10f70a63          	beq	a4,a5,1f28 <KB_Scan_Handle+0x4b8>
    1e18:	fed44703          	lbu	a4,-19(s0)
    1e1c:	47c9                	li	a5,18
    1e1e:	02f757b3          	divu	a5,a4,a5
    1e22:	0ff7f793          	andi	a5,a5,255
    1e26:	86be                	mv	a3,a5
    1e28:	fed44703          	lbu	a4,-19(s0)
    1e2c:	47c9                	li	a5,18
    1e2e:	02f777b3          	remu	a5,a4,a5
    1e32:	0ff7f793          	andi	a5,a5,255
    1e36:	863e                	mv	a2,a5
    1e38:	20000737          	lui	a4,0x20000
    1e3c:	87b6                	mv	a5,a3
    1e3e:	078e                	slli	a5,a5,0x3
    1e40:	97b6                	add	a5,a5,a3
    1e42:	0786                	slli	a5,a5,0x1
    1e44:	01070713          	addi	a4,a4,16 # 20000010 <key_matrix>
    1e48:	97ba                	add	a5,a5,a4
    1e4a:	97b2                	add	a5,a5,a2
    1e4c:	2398                	lbu	a4,0(a5)
    1e4e:	04000793          	li	a5,64
    1e52:	0cf70b63          	beq	a4,a5,1f28 <KB_Scan_Handle+0x4b8>
    1e56:	fed44703          	lbu	a4,-19(s0)
    1e5a:	47c9                	li	a5,18
    1e5c:	02f757b3          	divu	a5,a4,a5
    1e60:	0ff7f793          	andi	a5,a5,255
    1e64:	86be                	mv	a3,a5
    1e66:	fed44703          	lbu	a4,-19(s0)
    1e6a:	47c9                	li	a5,18
    1e6c:	02f777b3          	remu	a5,a4,a5
    1e70:	0ff7f793          	andi	a5,a5,255
    1e74:	863e                	mv	a2,a5
    1e76:	20000737          	lui	a4,0x20000
    1e7a:	87b6                	mv	a5,a3
    1e7c:	078e                	slli	a5,a5,0x3
    1e7e:	97b6                	add	a5,a5,a3
    1e80:	0786                	slli	a5,a5,0x1
    1e82:	01070713          	addi	a4,a4,16 # 20000010 <key_matrix>
    1e86:	97ba                	add	a5,a5,a4
    1e88:	97b2                	add	a5,a5,a2
    1e8a:	2398                	lbu	a4,0(a5)
    1e8c:	47a1                	li	a5,8
    1e8e:	08f70d63          	beq	a4,a5,1f28 <KB_Scan_Handle+0x4b8>
    1e92:	fed44703          	lbu	a4,-19(s0)
    1e96:	47c9                	li	a5,18
    1e98:	02f757b3          	divu	a5,a4,a5
    1e9c:	0ff7f793          	andi	a5,a5,255
    1ea0:	86be                	mv	a3,a5
    1ea2:	fed44703          	lbu	a4,-19(s0)
    1ea6:	47c9                	li	a5,18
    1ea8:	02f777b3          	remu	a5,a4,a5
    1eac:	0ff7f793          	andi	a5,a5,255
    1eb0:	863e                	mv	a2,a5
    1eb2:	20000737          	lui	a4,0x20000
    1eb6:	87b6                	mv	a5,a3
    1eb8:	078e                	slli	a5,a5,0x3
    1eba:	97b6                	add	a5,a5,a3
    1ebc:	0786                	slli	a5,a5,0x1
    1ebe:	01070713          	addi	a4,a4,16 # 20000010 <key_matrix>
    1ec2:	97ba                	add	a5,a5,a4
    1ec4:	97b2                	add	a5,a5,a2
    1ec6:	2398                	lbu	a4,0(a5)
    1ec8:	0ff00793          	li	a5,255
    1ecc:	04f70e63          	beq	a4,a5,1f28 <KB_Scan_Handle+0x4b8>
    1ed0:	fee44703          	lbu	a4,-18(s0)
    1ed4:	4795                	li	a5,5
    1ed6:	04e7e963          	bltu	a5,a4,1f28 <KB_Scan_Handle+0x4b8>
    1eda:	fed44703          	lbu	a4,-19(s0)
    1ede:	47c9                	li	a5,18
    1ee0:	02f757b3          	divu	a5,a4,a5
    1ee4:	0ff7f793          	andi	a5,a5,255
    1ee8:	86be                	mv	a3,a5
    1eea:	fed44703          	lbu	a4,-19(s0)
    1eee:	47c9                	li	a5,18
    1ef0:	02f777b3          	remu	a5,a4,a5
    1ef4:	0ff7f793          	andi	a5,a5,255
    1ef8:	85be                	mv	a1,a5
    1efa:	fee44783          	lbu	a5,-18(s0)
    1efe:	00178713          	addi	a4,a5,1
    1f02:	fee40723          	sb	a4,-18(s0)
    1f06:	863e                	mv	a2,a5
    1f08:	20000737          	lui	a4,0x20000
    1f0c:	87b6                	mv	a5,a3
    1f0e:	078e                	slli	a5,a5,0x3
    1f10:	97b6                	add	a5,a5,a3
    1f12:	0786                	slli	a5,a5,0x1
    1f14:	01070713          	addi	a4,a4,16 # 20000010 <key_matrix>
    1f18:	97ba                	add	a5,a5,a4
    1f1a:	97ae                	add	a5,a5,a1
    1f1c:	2398                	lbu	a4,0(a5)
    1f1e:	ff040793          	addi	a5,s0,-16
    1f22:	97b2                	add	a5,a5,a2
    1f24:	fee78623          	sb	a4,-20(a5)
    1f28:	fed44783          	lbu	a5,-19(s0)
    1f2c:	0785                	addi	a5,a5,1
    1f2e:	fef406a3          	sb	a5,-19(s0)
    1f32:	fed44703          	lbu	a4,-19(s0)
    1f36:	06b00793          	li	a5,107
    1f3a:	b4e7f6e3          	bgeu	a5,a4,1a86 <KB_Scan_Handle+0x16>
    1f3e:	a821                	j	1f56 <KB_Scan_Handle+0x4e6>
    1f40:	fee44783          	lbu	a5,-18(s0)
    1f44:	00178713          	addi	a4,a5,1
    1f48:	fee40723          	sb	a4,-18(s0)
    1f4c:	ff040713          	addi	a4,s0,-16
    1f50:	97ba                	add	a5,a5,a4
    1f52:	fe078623          	sb	zero,-20(a5)
    1f56:	fee44703          	lbu	a4,-18(s0)
    1f5a:	4795                	li	a5,5
    1f5c:	fee7f2e3          	bgeu	a5,a4,1f40 <KB_Scan_Handle+0x4d0>
    1f60:	fef44703          	lbu	a4,-17(s0)
    1f64:	82e18e23          	sb	a4,-1988(gp) # 2000047c <KB_Data_Pack>
    1f68:	83c18793          	addi	a5,gp,-1988 # 2000047c <KB_Data_Pack>
    1f6c:	000780a3          	sb	zero,1(a5)
    1f70:	fe040623          	sb	zero,-20(s0)
    1f74:	a02d                	j	1f9e <KB_Scan_Handle+0x52e>
    1f76:	fec44783          	lbu	a5,-20(s0)
    1f7a:	fec44703          	lbu	a4,-20(s0)
    1f7e:	00270693          	addi	a3,a4,2
    1f82:	ff040713          	addi	a4,s0,-16
    1f86:	97ba                	add	a5,a5,a4
    1f88:	fec7c703          	lbu	a4,-20(a5)
    1f8c:	83c18793          	addi	a5,gp,-1988 # 2000047c <KB_Data_Pack>
    1f90:	97b6                	add	a5,a5,a3
    1f92:	a398                	sb	a4,0(a5)
    1f94:	fec44783          	lbu	a5,-20(s0)
    1f98:	0785                	addi	a5,a5,1
    1f9a:	fef40623          	sb	a5,-20(s0)
    1f9e:	fec44703          	lbu	a4,-20(s0)
    1fa2:	4795                	li	a5,5
    1fa4:	fce7f9e3          	bgeu	a5,a4,1f76 <KB_Scan_Handle+0x506>
    1fa8:	4621                	li	a2,8
    1faa:	83018593          	addi	a1,gp,-2000 # 20000470 <last_report>
    1fae:	83c18513          	addi	a0,gp,-1988 # 2000047c <KB_Data_Pack>
    1fb2:	4ae030ef          	jal	ra,5460 <memcmp>
    1fb6:	87aa                	mv	a5,a0
    1fb8:	00f037b3          	snez	a5,a5
    1fbc:	0ff7f793          	andi	a5,a5,255
    1fc0:	fef401a3          	sb	a5,-29(s0)
    1fc4:	fe0405a3          	sb	zero,-21(s0)
    1fc8:	fe042223          	sw	zero,-28(s0)
    1fcc:	a00d                	j	1fee <KB_Scan_Handle+0x57e>
    1fce:	83c18713          	addi	a4,gp,-1988 # 2000047c <KB_Data_Pack>
    1fd2:	fe442783          	lw	a5,-28(s0)
    1fd6:	97ba                	add	a5,a5,a4
    1fd8:	239c                	lbu	a5,0(a5)
    1fda:	c789                	beqz	a5,1fe4 <KB_Scan_Handle+0x574>
    1fdc:	4785                	li	a5,1
    1fde:	fef405a3          	sb	a5,-21(s0)
    1fe2:	a819                	j	1ff8 <KB_Scan_Handle+0x588>
    1fe4:	fe442783          	lw	a5,-28(s0)
    1fe8:	0785                	addi	a5,a5,1
    1fea:	fef42223          	sw	a5,-28(s0)
    1fee:	fe442703          	lw	a4,-28(s0)
    1ff2:	479d                	li	a5,7
    1ff4:	fce7dde3          	bge	a5,a4,1fce <KB_Scan_Handle+0x55e>
    1ff8:	fe344783          	lbu	a5,-29(s0)
    1ffc:	eb91                	bnez	a5,2010 <KB_Scan_Handle+0x5a0>
    1ffe:	feb44783          	lbu	a5,-21(s0)
    2002:	c3b9                	beqz	a5,2048 <KB_Scan_Handle+0x5d8>
    2004:	8381c703          	lbu	a4,-1992(gp) # 20000478 <repeat_counter>
    2008:	04a00793          	li	a5,74
    200c:	02e7fe63          	bgeu	a5,a4,2048 <KB_Scan_Handle+0x5d8>
    2010:	83c1a683          	lw	a3,-1988(gp) # 2000047c <KB_Data_Pack>
    2014:	82d1a823          	sw	a3,-2000(gp) # 20000470 <last_report>
    2018:	83018713          	addi	a4,gp,-2000 # 20000470 <last_report>
    201c:	83c18793          	addi	a5,gp,-1988 # 2000047c <KB_Data_Pack>
    2020:	43dc                	lw	a5,4(a5)
    2022:	c35c                	sw	a5,4(a4)
    2024:	81f1c783          	lbu	a5,-2017(gp) # 2000045f <USBFS_DevEnumStatus>
    2028:	0ff7f793          	andi	a5,a5,255
    202c:	cb81                	beqz	a5,203c <KB_Scan_Handle+0x5cc>
    202e:	4685                	li	a3,1
    2030:	4621                	li	a2,8
    2032:	83c18593          	addi	a1,gp,-1988 # 2000047c <KB_Data_Pack>
    2036:	4505                	li	a0,1
    2038:	b90fe0ef          	jal	ra,3c8 <USBFS_Endp_DataUp>
    203c:	83c18513          	addi	a0,gp,-1988 # 2000047c <KB_Data_Pack>
    2040:	e9eff0ef          	jal	ra,16de <UART2_SendReport>
    2044:	82018c23          	sb	zero,-1992(gp) # 20000478 <repeat_counter>
    2048:	feb44783          	lbu	a5,-21(s0)
    204c:	cb89                	beqz	a5,205e <KB_Scan_Handle+0x5ee>
    204e:	8381c783          	lbu	a5,-1992(gp) # 20000478 <repeat_counter>
    2052:	0785                	addi	a5,a5,1
    2054:	0ff7f713          	andi	a4,a5,255
    2058:	82e18c23          	sb	a4,-1992(gp) # 20000478 <repeat_counter>
    205c:	a019                	j	2062 <KB_Scan_Handle+0x5f2>
    205e:	82018c23          	sb	zero,-1992(gp) # 20000478 <repeat_counter>
    2062:	0001                	nop
    2064:	50b2                	lw	ra,44(sp)
    2066:	5422                	lw	s0,40(sp)
    2068:	6145                	addi	sp,sp,48
    206a:	8082                	ret

0000206c <TIM3_Init>:
    206c:	7139                	addi	sp,sp,-64
    206e:	de06                	sw	ra,60(sp)
    2070:	dc22                	sw	s0,56(sp)
    2072:	0080                	addi	s0,sp,64
    2074:	87aa                	mv	a5,a0
    2076:	872e                	mv	a4,a1
    2078:	fcf41723          	sh	a5,-50(s0)
    207c:	87ba                	mv	a5,a4
    207e:	fcf41623          	sh	a5,-52(s0)
    2082:	fe042223          	sw	zero,-28(s0)
    2086:	fe042423          	sw	zero,-24(s0)
    208a:	fe041623          	sh	zero,-20(s0)
    208e:	fc042e23          	sw	zero,-36(s0)
    2092:	fe042023          	sw	zero,-32(s0)
    2096:	4585                	li	a1,1
    2098:	4509                	li	a0,2
    209a:	550010ef          	jal	ra,35ea <RCC_APB1PeriphClockCmd>
    209e:	fce45783          	lhu	a5,-50(s0)
    20a2:	fef41423          	sh	a5,-24(s0)
    20a6:	fcc45783          	lhu	a5,-52(s0)
    20aa:	fef41223          	sh	a5,-28(s0)
    20ae:	fe041523          	sh	zero,-22(s0)
    20b2:	fe041323          	sh	zero,-26(s0)
    20b6:	fe440793          	addi	a5,s0,-28
    20ba:	85be                	mv	a1,a5
    20bc:	400007b7          	lui	a5,0x40000
    20c0:	40078513          	addi	a0,a5,1024 # 40000400 <_eusrstack+0x1fff8400>
    20c4:	0b7010ef          	jal	ra,397a <TIM_TimeBaseInit>
    20c8:	4605                	li	a2,1
    20ca:	4585                	li	a1,1
    20cc:	400007b7          	lui	a5,0x40000
    20d0:	40078513          	addi	a0,a5,1024 # 40000400 <_eusrstack+0x1fff8400>
    20d4:	479010ef          	jal	ra,3d4c <TIM_ITConfig>
    20d8:	02d00793          	li	a5,45
    20dc:	fcf40e23          	sb	a5,-36(s0)
    20e0:	4785                	li	a5,1
    20e2:	fcf40ea3          	sb	a5,-35(s0)
    20e6:	4789                	li	a5,2
    20e8:	fcf40f23          	sb	a5,-34(s0)
    20ec:	4785                	li	a5,1
    20ee:	fef42023          	sw	a5,-32(s0)
    20f2:	fdc40793          	addi	a5,s0,-36
    20f6:	853e                	mv	a0,a5
    20f8:	6cb000ef          	jal	ra,2fc2 <NVIC_Init>
    20fc:	4585                	li	a1,1
    20fe:	400007b7          	lui	a5,0x40000
    2102:	40078513          	addi	a0,a5,1024 # 40000400 <_eusrstack+0x1fff8400>
    2106:	397010ef          	jal	ra,3c9c <TIM_Cmd>
    210a:	0001                	nop
    210c:	50f2                	lw	ra,60(sp)
    210e:	5462                	lw	s0,56(sp)
    2110:	6121                	addi	sp,sp,64
    2112:	8082                	ret

00002114 <TIM3_IRQHandler>:
    2114:	1141                	addi	sp,sp,-16
    2116:	c622                	sw	s0,12(sp)
    2118:	0800                	addi	s0,sp,16
    211a:	4585                	li	a1,1
    211c:	400007b7          	lui	a5,0x40000
    2120:	40078513          	addi	a0,a5,1024 # 40000400 <_eusrstack+0x1fff8400>
    2124:	4f9010ef          	jal	ra,3e1c <TIM_GetITStatus>
    2128:	87aa                	mv	a5,a0
    212a:	c385                	beqz	a5,214a <TIM3_IRQHandler+0x36>
    212c:	4585                	li	a1,1
    212e:	400007b7          	lui	a5,0x40000
    2132:	40078513          	addi	a0,a5,1024 # 40000400 <_eusrstack+0x1fff8400>
    2136:	553010ef          	jal	ra,3e88 <TIM_ClearITPendingBit>
    213a:	857ff0ef          	jal	ra,1990 <KB_Scan>
    213e:	8481a783          	lw	a5,-1976(gp) # 20000488 <system_time_ms>
    2142:	00178713          	addi	a4,a5,1
    2146:	84e1a423          	sw	a4,-1976(gp) # 20000488 <system_time_ms>
    214a:	0001                	nop
    214c:	4432                	lw	s0,12(sp)
    214e:	0141                	addi	sp,sp,16
    2150:	30200073          	mret

00002154 <KB_Sleep_Wakeup_Cfg>:
    2154:	1101                	addi	sp,sp,-32
    2156:	ce06                	sw	ra,28(sp)
    2158:	cc22                	sw	s0,24(sp)
    215a:	1000                	addi	s0,sp,32
    215c:	fe042023          	sw	zero,-32(s0)
    2160:	fe042223          	sw	zero,-28(s0)
    2164:	fe042423          	sw	zero,-24(s0)
    2168:	fe042623          	sw	zero,-20(s0)
    216c:	4585                	li	a1,1
    216e:	4505                	li	a0,1
    2170:	434010ef          	jal	ra,35a4 <RCC_APB2PeriphClockCmd>
    2174:	45b1                	li	a1,12
    2176:	4505                	li	a0,1
    2178:	58f000ef          	jal	ra,2f06 <GPIO_EXTILineConfig>
    217c:	6785                	lui	a5,0x1
    217e:	fef42023          	sw	a5,-32(s0)
    2182:	4791                	li	a5,4
    2184:	fef42223          	sw	a5,-28(s0)
    2188:	47b1                	li	a5,12
    218a:	fef42423          	sw	a5,-24(s0)
    218e:	4785                	li	a5,1
    2190:	fef42623          	sw	a5,-20(s0)
    2194:	fe040793          	addi	a5,s0,-32
    2198:	853e                	mv	a0,a5
    219a:	2d7d                	jal	2858 <EXTI_Init>
    219c:	45b5                	li	a1,13
    219e:	4505                	li	a0,1
    21a0:	567000ef          	jal	ra,2f06 <GPIO_EXTILineConfig>
    21a4:	6789                	lui	a5,0x2
    21a6:	fef42023          	sw	a5,-32(s0)
    21aa:	4791                	li	a5,4
    21ac:	fef42223          	sw	a5,-28(s0)
    21b0:	47b1                	li	a5,12
    21b2:	fef42423          	sw	a5,-24(s0)
    21b6:	4785                	li	a5,1
    21b8:	fef42623          	sw	a5,-20(s0)
    21bc:	fe040793          	addi	a5,s0,-32
    21c0:	853e                	mv	a0,a5
    21c2:	2d59                	jal	2858 <EXTI_Init>
    21c4:	45b9                	li	a1,14
    21c6:	4505                	li	a0,1
    21c8:	53f000ef          	jal	ra,2f06 <GPIO_EXTILineConfig>
    21cc:	6791                	lui	a5,0x4
    21ce:	fef42023          	sw	a5,-32(s0)
    21d2:	4791                	li	a5,4
    21d4:	fef42223          	sw	a5,-28(s0)
    21d8:	47b1                	li	a5,12
    21da:	fef42423          	sw	a5,-24(s0)
    21de:	4785                	li	a5,1
    21e0:	fef42623          	sw	a5,-20(s0)
    21e4:	fe040793          	addi	a5,s0,-32
    21e8:	853e                	mv	a0,a5
    21ea:	25bd                	jal	2858 <EXTI_Init>
    21ec:	45bd                	li	a1,15
    21ee:	4505                	li	a0,1
    21f0:	517000ef          	jal	ra,2f06 <GPIO_EXTILineConfig>
    21f4:	67a1                	lui	a5,0x8
    21f6:	fef42023          	sw	a5,-32(s0)
    21fa:	4791                	li	a5,4
    21fc:	fef42223          	sw	a5,-28(s0)
    2200:	47b1                	li	a5,12
    2202:	fef42423          	sw	a5,-24(s0)
    2206:	4785                	li	a5,1
    2208:	fef42623          	sw	a5,-20(s0)
    220c:	fe040793          	addi	a5,s0,-32
    2210:	853e                	mv	a0,a5
    2212:	2599                	jal	2858 <EXTI_Init>
    2214:	400107b7          	lui	a5,0x40010
    2218:	40078793          	addi	a5,a5,1024 # 40010400 <_eusrstack+0x20008400>
    221c:	4394                	lw	a3,0(a5)
    221e:	400107b7          	lui	a5,0x40010
    2222:	40078793          	addi	a5,a5,1024 # 40010400 <_eusrstack+0x20008400>
    2226:	673d                	lui	a4,0xf
    2228:	8f55                	or	a4,a4,a3
    222a:	c398                	sw	a4,0(a5)
    222c:	0001                	nop
    222e:	40f2                	lw	ra,28(sp)
    2230:	4462                	lw	s0,24(sp)
    2232:	6105                	addi	sp,sp,32
    2234:	8082                	ret

00002236 <USB_Sleep_Wakeup_CFG>:
    2236:	1101                	addi	sp,sp,-32
    2238:	ce06                	sw	ra,28(sp)
    223a:	cc22                	sw	s0,24(sp)
    223c:	1000                	addi	s0,sp,32
    223e:	fe042023          	sw	zero,-32(s0)
    2242:	fe042223          	sw	zero,-28(s0)
    2246:	fe042423          	sw	zero,-24(s0)
    224a:	fe042623          	sw	zero,-20(s0)
    224e:	000407b7          	lui	a5,0x40
    2252:	fef42023          	sw	a5,-32(s0)
    2256:	4791                	li	a5,4
    2258:	fef42223          	sw	a5,-28(s0)
    225c:	47a1                	li	a5,8
    225e:	fef42423          	sw	a5,-24(s0)
    2262:	4785                	li	a5,1
    2264:	fef42623          	sw	a5,-20(s0)
    2268:	fe040793          	addi	a5,s0,-32
    226c:	853e                	mv	a0,a5
    226e:	23ed                	jal	2858 <EXTI_Init>
    2270:	0001                	nop
    2272:	40f2                	lw	ra,28(sp)
    2274:	4462                	lw	s0,24(sp)
    2276:	6105                	addi	sp,sp,32
    2278:	8082                	ret

0000227a <MCU_Sleep_Wakeup_Operate>:
    227a:	1141                	addi	sp,sp,-16
    227c:	c606                	sw	ra,12(sp)
    227e:	c422                	sw	s0,8(sp)
    2280:	0800                	addi	s0,sp,16
    2282:	08800793          	li	a5,136
    2286:	8007b073          	csrc	0x800,a5
    228a:	0000100f          	fence.i
    228e:	653d                	lui	a0,0xf
    2290:	2f85                	jal	2a00 <EXTI_ClearFlag>
    2292:	0f000513          	li	a0,240
    2296:	27ad                	jal	2a00 <EXTI_ClearFlag>
    2298:	4589                	li	a1,2
    229a:	4505                	li	a0,1
    229c:	5f7000ef          	jal	ra,3092 <PWR_EnterSTOPMode>
    22a0:	8b0ff0ef          	jal	ra,1350 <SystemInit>
    22a4:	944ff0ef          	jal	ra,13e8 <SystemCoreClockUpdate>
    22a8:	f9dfd0ef          	jal	ra,244 <USBFS_RCC_Init>
    22ac:	653d                	lui	a0,0xf
    22ae:	2f29                	jal	29c8 <EXTI_GetFlagStatus>
    22b0:	87aa                	mv	a5,a0
    22b2:	c791                	beqz	a5,22be <MCU_Sleep_Wakeup_Operate+0x44>
    22b4:	653d                	lui	a0,0xf
    22b6:	27a9                	jal	2a00 <EXTI_ClearFlag>
    22b8:	e69fe0ef          	jal	ra,1120 <USBFS_Send_Resume>
    22bc:	a819                	j	22d2 <MCU_Sleep_Wakeup_Operate+0x58>
    22be:	0f000513          	li	a0,240
    22c2:	2719                	jal	29c8 <EXTI_GetFlagStatus>
    22c4:	87aa                	mv	a5,a0
    22c6:	c791                	beqz	a5,22d2 <MCU_Sleep_Wakeup_Operate+0x58>
    22c8:	0f000513          	li	a0,240
    22cc:	2f15                	jal	2a00 <EXTI_ClearFlag>
    22ce:	e53fe0ef          	jal	ra,1120 <USBFS_Send_Resume>
    22d2:	08800793          	li	a5,136
    22d6:	8007a073          	csrs	0x800,a5
    22da:	0001                	nop
    22dc:	40b2                	lw	ra,12(sp)
    22de:	4422                	lw	s0,8(sp)
    22e0:	0141                	addi	sp,sp,16
    22e2:	8082                	ret

000022e4 <ADC1_2_IRQHandler>:
    22e4:	a001                	j	22e4 <ADC1_2_IRQHandler>

000022e6 <handle_reset>:
    22e6:	1ffff197          	auipc	gp,0x1ffff
    22ea:	95a18193          	addi	gp,gp,-1702 # 20000c40 <__global_pointer$>
    22ee:	20006117          	auipc	sp,0x20006
    22f2:	d1210113          	addi	sp,sp,-750 # 20008000 <_eusrstack>
    22f6:	00003517          	auipc	a0,0x3
    22fa:	42e50513          	addi	a0,a0,1070 # 5724 <_data_lma>
    22fe:	1fffe597          	auipc	a1,0x1fffe
    2302:	d0258593          	addi	a1,a1,-766 # 20000000 <_data_vma>
    2306:	81018613          	addi	a2,gp,-2032 # 20000450 <_edata>
    230a:	00c5fa63          	bgeu	a1,a2,231e <handle_reset+0x38>
    230e:	00052283          	lw	t0,0(a0)
    2312:	0055a023          	sw	t0,0(a1)
    2316:	0511                	addi	a0,a0,4
    2318:	0591                	addi	a1,a1,4
    231a:	fec5eae3          	bltu	a1,a2,230e <handle_reset+0x28>
    231e:	81018513          	addi	a0,gp,-2032 # 20000450 <_edata>
    2322:	d8418593          	addi	a1,gp,-636 # 200009c4 <_ebss>
    2326:	00b57763          	bgeu	a0,a1,2334 <handle_reset+0x4e>
    232a:	00052023          	sw	zero,0(a0)
    232e:	0511                	addi	a0,a0,4
    2330:	feb56de3          	bltu	a0,a1,232a <handle_reset+0x44>
    2334:	42fd                	li	t0,31
    2336:	bc029073          	csrw	0xbc0,t0
    233a:	42ad                	li	t0,11
    233c:	80429073          	csrw	0x804,t0
    2340:	000062b7          	lui	t0,0x6
    2344:	08828293          	addi	t0,t0,136 # 6088 <_data_lma+0x964>
    2348:	30029073          	csrw	mstatus,t0
    234c:	ffffe297          	auipc	t0,0xffffe
    2350:	cb828293          	addi	t0,t0,-840 # 4 <_einit>
    2354:	0032e293          	ori	t0,t0,3
    2358:	30529073          	csrw	mtvec,t0
    235c:	ff5fe0ef          	jal	ra,1350 <SystemInit>
    2360:	fffff297          	auipc	t0,0xfffff
    2364:	f6028293          	addi	t0,t0,-160 # 12c0 <main>
    2368:	34129073          	csrw	mepc,t0
    236c:	30200073          	mret

00002370 <DMA_DeInit>:
    2370:	1101                	addi	sp,sp,-32
    2372:	ce22                	sw	s0,28(sp)
    2374:	1000                	addi	s0,sp,32
    2376:	fea42623          	sw	a0,-20(s0)
    237a:	fec42783          	lw	a5,-20(s0)
    237e:	4398                	lw	a4,0(a5)
    2380:	67c1                	lui	a5,0x10
    2382:	17f9                	addi	a5,a5,-2
    2384:	8f7d                	and	a4,a4,a5
    2386:	fec42783          	lw	a5,-20(s0)
    238a:	c398                	sw	a4,0(a5)
    238c:	fec42783          	lw	a5,-20(s0)
    2390:	0007a023          	sw	zero,0(a5) # 10000 <_data_lma+0xa8dc>
    2394:	fec42783          	lw	a5,-20(s0)
    2398:	0007a223          	sw	zero,4(a5)
    239c:	fec42783          	lw	a5,-20(s0)
    23a0:	0007a423          	sw	zero,8(a5)
    23a4:	fec42783          	lw	a5,-20(s0)
    23a8:	0007a623          	sw	zero,12(a5)
    23ac:	fec42703          	lw	a4,-20(s0)
    23b0:	400207b7          	lui	a5,0x40020
    23b4:	07a1                	addi	a5,a5,8
    23b6:	00f71b63          	bne	a4,a5,23cc <DMA_DeInit+0x5c>
    23ba:	400207b7          	lui	a5,0x40020
    23be:	43d8                	lw	a4,4(a5)
    23c0:	400207b7          	lui	a5,0x40020
    23c4:	00f76713          	ori	a4,a4,15
    23c8:	c3d8                	sw	a4,4(a5)
    23ca:	ac45                	j	267a <DMA_DeInit+0x30a>
    23cc:	fec42703          	lw	a4,-20(s0)
    23d0:	400207b7          	lui	a5,0x40020
    23d4:	07f1                	addi	a5,a5,28
    23d6:	00f71b63          	bne	a4,a5,23ec <DMA_DeInit+0x7c>
    23da:	400207b7          	lui	a5,0x40020
    23de:	43d8                	lw	a4,4(a5)
    23e0:	400207b7          	lui	a5,0x40020
    23e4:	0f076713          	ori	a4,a4,240
    23e8:	c3d8                	sw	a4,4(a5)
    23ea:	ac41                	j	267a <DMA_DeInit+0x30a>
    23ec:	fec42703          	lw	a4,-20(s0)
    23f0:	400207b7          	lui	a5,0x40020
    23f4:	03078793          	addi	a5,a5,48 # 40020030 <_eusrstack+0x20018030>
    23f8:	00f71d63          	bne	a4,a5,2412 <DMA_DeInit+0xa2>
    23fc:	400207b7          	lui	a5,0x40020
    2400:	43d4                	lw	a3,4(a5)
    2402:	400207b7          	lui	a5,0x40020
    2406:	6705                	lui	a4,0x1
    2408:	f0070713          	addi	a4,a4,-256 # f00 <__stack_size+0x700>
    240c:	8f55                	or	a4,a4,a3
    240e:	c3d8                	sw	a4,4(a5)
    2410:	a4ad                	j	267a <DMA_DeInit+0x30a>
    2412:	fec42703          	lw	a4,-20(s0)
    2416:	400207b7          	lui	a5,0x40020
    241a:	04478793          	addi	a5,a5,68 # 40020044 <_eusrstack+0x20018044>
    241e:	00f71b63          	bne	a4,a5,2434 <DMA_DeInit+0xc4>
    2422:	400207b7          	lui	a5,0x40020
    2426:	43d4                	lw	a3,4(a5)
    2428:	400207b7          	lui	a5,0x40020
    242c:	673d                	lui	a4,0xf
    242e:	8f55                	or	a4,a4,a3
    2430:	c3d8                	sw	a4,4(a5)
    2432:	a4a1                	j	267a <DMA_DeInit+0x30a>
    2434:	fec42703          	lw	a4,-20(s0)
    2438:	400207b7          	lui	a5,0x40020
    243c:	05878793          	addi	a5,a5,88 # 40020058 <_eusrstack+0x20018058>
    2440:	00f71c63          	bne	a4,a5,2458 <DMA_DeInit+0xe8>
    2444:	400207b7          	lui	a5,0x40020
    2448:	43d4                	lw	a3,4(a5)
    244a:	400207b7          	lui	a5,0x40020
    244e:	000f0737          	lui	a4,0xf0
    2452:	8f55                	or	a4,a4,a3
    2454:	c3d8                	sw	a4,4(a5)
    2456:	a415                	j	267a <DMA_DeInit+0x30a>
    2458:	fec42703          	lw	a4,-20(s0)
    245c:	400207b7          	lui	a5,0x40020
    2460:	06c78793          	addi	a5,a5,108 # 4002006c <_eusrstack+0x2001806c>
    2464:	00f71c63          	bne	a4,a5,247c <DMA_DeInit+0x10c>
    2468:	400207b7          	lui	a5,0x40020
    246c:	43d4                	lw	a3,4(a5)
    246e:	400207b7          	lui	a5,0x40020
    2472:	00f00737          	lui	a4,0xf00
    2476:	8f55                	or	a4,a4,a3
    2478:	c3d8                	sw	a4,4(a5)
    247a:	a401                	j	267a <DMA_DeInit+0x30a>
    247c:	fec42703          	lw	a4,-20(s0)
    2480:	400207b7          	lui	a5,0x40020
    2484:	08078793          	addi	a5,a5,128 # 40020080 <_eusrstack+0x20018080>
    2488:	00f71c63          	bne	a4,a5,24a0 <DMA_DeInit+0x130>
    248c:	400207b7          	lui	a5,0x40020
    2490:	43d4                	lw	a3,4(a5)
    2492:	400207b7          	lui	a5,0x40020
    2496:	0f000737          	lui	a4,0xf000
    249a:	8f55                	or	a4,a4,a3
    249c:	c3d8                	sw	a4,4(a5)
    249e:	aaf1                	j	267a <DMA_DeInit+0x30a>
    24a0:	fec42703          	lw	a4,-20(s0)
    24a4:	400207b7          	lui	a5,0x40020
    24a8:	40878793          	addi	a5,a5,1032 # 40020408 <_eusrstack+0x20018408>
    24ac:	00f71f63          	bne	a4,a5,24ca <DMA_DeInit+0x15a>
    24b0:	400207b7          	lui	a5,0x40020
    24b4:	40078793          	addi	a5,a5,1024 # 40020400 <_eusrstack+0x20018400>
    24b8:	43d8                	lw	a4,4(a5)
    24ba:	400207b7          	lui	a5,0x40020
    24be:	40078793          	addi	a5,a5,1024 # 40020400 <_eusrstack+0x20018400>
    24c2:	00f76713          	ori	a4,a4,15
    24c6:	c3d8                	sw	a4,4(a5)
    24c8:	aa4d                	j	267a <DMA_DeInit+0x30a>
    24ca:	fec42703          	lw	a4,-20(s0)
    24ce:	400207b7          	lui	a5,0x40020
    24d2:	41c78793          	addi	a5,a5,1052 # 4002041c <_eusrstack+0x2001841c>
    24d6:	00f71f63          	bne	a4,a5,24f4 <DMA_DeInit+0x184>
    24da:	400207b7          	lui	a5,0x40020
    24de:	40078793          	addi	a5,a5,1024 # 40020400 <_eusrstack+0x20018400>
    24e2:	43d8                	lw	a4,4(a5)
    24e4:	400207b7          	lui	a5,0x40020
    24e8:	40078793          	addi	a5,a5,1024 # 40020400 <_eusrstack+0x20018400>
    24ec:	0f076713          	ori	a4,a4,240
    24f0:	c3d8                	sw	a4,4(a5)
    24f2:	a261                	j	267a <DMA_DeInit+0x30a>
    24f4:	fec42703          	lw	a4,-20(s0)
    24f8:	400207b7          	lui	a5,0x40020
    24fc:	43078793          	addi	a5,a5,1072 # 40020430 <_eusrstack+0x20018430>
    2500:	02f71163          	bne	a4,a5,2522 <DMA_DeInit+0x1b2>
    2504:	400207b7          	lui	a5,0x40020
    2508:	40078793          	addi	a5,a5,1024 # 40020400 <_eusrstack+0x20018400>
    250c:	43d4                	lw	a3,4(a5)
    250e:	400207b7          	lui	a5,0x40020
    2512:	40078793          	addi	a5,a5,1024 # 40020400 <_eusrstack+0x20018400>
    2516:	6705                	lui	a4,0x1
    2518:	f0070713          	addi	a4,a4,-256 # f00 <__stack_size+0x700>
    251c:	8f55                	or	a4,a4,a3
    251e:	c3d8                	sw	a4,4(a5)
    2520:	aaa9                	j	267a <DMA_DeInit+0x30a>
    2522:	fec42703          	lw	a4,-20(s0)
    2526:	400207b7          	lui	a5,0x40020
    252a:	44478793          	addi	a5,a5,1092 # 40020444 <_eusrstack+0x20018444>
    252e:	00f71f63          	bne	a4,a5,254c <DMA_DeInit+0x1dc>
    2532:	400207b7          	lui	a5,0x40020
    2536:	40078793          	addi	a5,a5,1024 # 40020400 <_eusrstack+0x20018400>
    253a:	43d4                	lw	a3,4(a5)
    253c:	400207b7          	lui	a5,0x40020
    2540:	40078793          	addi	a5,a5,1024 # 40020400 <_eusrstack+0x20018400>
    2544:	673d                	lui	a4,0xf
    2546:	8f55                	or	a4,a4,a3
    2548:	c3d8                	sw	a4,4(a5)
    254a:	aa05                	j	267a <DMA_DeInit+0x30a>
    254c:	fec42703          	lw	a4,-20(s0)
    2550:	400207b7          	lui	a5,0x40020
    2554:	45878793          	addi	a5,a5,1112 # 40020458 <_eusrstack+0x20018458>
    2558:	02f71063          	bne	a4,a5,2578 <DMA_DeInit+0x208>
    255c:	400207b7          	lui	a5,0x40020
    2560:	40078793          	addi	a5,a5,1024 # 40020400 <_eusrstack+0x20018400>
    2564:	43d4                	lw	a3,4(a5)
    2566:	400207b7          	lui	a5,0x40020
    256a:	40078793          	addi	a5,a5,1024 # 40020400 <_eusrstack+0x20018400>
    256e:	000f0737          	lui	a4,0xf0
    2572:	8f55                	or	a4,a4,a3
    2574:	c3d8                	sw	a4,4(a5)
    2576:	a211                	j	267a <DMA_DeInit+0x30a>
    2578:	fec42703          	lw	a4,-20(s0)
    257c:	400207b7          	lui	a5,0x40020
    2580:	46c78793          	addi	a5,a5,1132 # 4002046c <_eusrstack+0x2001846c>
    2584:	02f71063          	bne	a4,a5,25a4 <DMA_DeInit+0x234>
    2588:	400207b7          	lui	a5,0x40020
    258c:	40078793          	addi	a5,a5,1024 # 40020400 <_eusrstack+0x20018400>
    2590:	43d4                	lw	a3,4(a5)
    2592:	400207b7          	lui	a5,0x40020
    2596:	40078793          	addi	a5,a5,1024 # 40020400 <_eusrstack+0x20018400>
    259a:	00f00737          	lui	a4,0xf00
    259e:	8f55                	or	a4,a4,a3
    25a0:	c3d8                	sw	a4,4(a5)
    25a2:	a8e1                	j	267a <DMA_DeInit+0x30a>
    25a4:	fec42703          	lw	a4,-20(s0)
    25a8:	400207b7          	lui	a5,0x40020
    25ac:	48078793          	addi	a5,a5,1152 # 40020480 <_eusrstack+0x20018480>
    25b0:	02f71063          	bne	a4,a5,25d0 <DMA_DeInit+0x260>
    25b4:	400207b7          	lui	a5,0x40020
    25b8:	40078793          	addi	a5,a5,1024 # 40020400 <_eusrstack+0x20018400>
    25bc:	43d4                	lw	a3,4(a5)
    25be:	400207b7          	lui	a5,0x40020
    25c2:	40078793          	addi	a5,a5,1024 # 40020400 <_eusrstack+0x20018400>
    25c6:	0f000737          	lui	a4,0xf000
    25ca:	8f55                	or	a4,a4,a3
    25cc:	c3d8                	sw	a4,4(a5)
    25ce:	a075                	j	267a <DMA_DeInit+0x30a>
    25d0:	fec42703          	lw	a4,-20(s0)
    25d4:	400207b7          	lui	a5,0x40020
    25d8:	49078793          	addi	a5,a5,1168 # 40020490 <_eusrstack+0x20018490>
    25dc:	00f71f63          	bne	a4,a5,25fa <DMA_DeInit+0x28a>
    25e0:	400207b7          	lui	a5,0x40020
    25e4:	4d078793          	addi	a5,a5,1232 # 400204d0 <_eusrstack+0x200184d0>
    25e8:	43d8                	lw	a4,4(a5)
    25ea:	400207b7          	lui	a5,0x40020
    25ee:	4d078793          	addi	a5,a5,1232 # 400204d0 <_eusrstack+0x200184d0>
    25f2:	00f76713          	ori	a4,a4,15
    25f6:	c3d8                	sw	a4,4(a5)
    25f8:	a049                	j	267a <DMA_DeInit+0x30a>
    25fa:	fec42703          	lw	a4,-20(s0)
    25fe:	400207b7          	lui	a5,0x40020
    2602:	4a078793          	addi	a5,a5,1184 # 400204a0 <_eusrstack+0x200184a0>
    2606:	00f71f63          	bne	a4,a5,2624 <DMA_DeInit+0x2b4>
    260a:	400207b7          	lui	a5,0x40020
    260e:	4d078793          	addi	a5,a5,1232 # 400204d0 <_eusrstack+0x200184d0>
    2612:	43d8                	lw	a4,4(a5)
    2614:	400207b7          	lui	a5,0x40020
    2618:	4d078793          	addi	a5,a5,1232 # 400204d0 <_eusrstack+0x200184d0>
    261c:	0f076713          	ori	a4,a4,240
    2620:	c3d8                	sw	a4,4(a5)
    2622:	a8a1                	j	267a <DMA_DeInit+0x30a>
    2624:	fec42703          	lw	a4,-20(s0)
    2628:	400207b7          	lui	a5,0x40020
    262c:	4b078793          	addi	a5,a5,1200 # 400204b0 <_eusrstack+0x200184b0>
    2630:	02f71163          	bne	a4,a5,2652 <DMA_DeInit+0x2e2>
    2634:	400207b7          	lui	a5,0x40020
    2638:	4d078793          	addi	a5,a5,1232 # 400204d0 <_eusrstack+0x200184d0>
    263c:	43d4                	lw	a3,4(a5)
    263e:	400207b7          	lui	a5,0x40020
    2642:	4d078793          	addi	a5,a5,1232 # 400204d0 <_eusrstack+0x200184d0>
    2646:	6705                	lui	a4,0x1
    2648:	f0070713          	addi	a4,a4,-256 # f00 <__stack_size+0x700>
    264c:	8f55                	or	a4,a4,a3
    264e:	c3d8                	sw	a4,4(a5)
    2650:	a02d                	j	267a <DMA_DeInit+0x30a>
    2652:	fec42703          	lw	a4,-20(s0)
    2656:	400207b7          	lui	a5,0x40020
    265a:	4c078793          	addi	a5,a5,1216 # 400204c0 <_eusrstack+0x200184c0>
    265e:	00f71e63          	bne	a4,a5,267a <DMA_DeInit+0x30a>
    2662:	400207b7          	lui	a5,0x40020
    2666:	4d078793          	addi	a5,a5,1232 # 400204d0 <_eusrstack+0x200184d0>
    266a:	43d4                	lw	a3,4(a5)
    266c:	400207b7          	lui	a5,0x40020
    2670:	4d078793          	addi	a5,a5,1232 # 400204d0 <_eusrstack+0x200184d0>
    2674:	673d                	lui	a4,0xf
    2676:	8f55                	or	a4,a4,a3
    2678:	c3d8                	sw	a4,4(a5)
    267a:	0001                	nop
    267c:	4472                	lw	s0,28(sp)
    267e:	6105                	addi	sp,sp,32
    2680:	8082                	ret

00002682 <DMA_Init>:
    2682:	7179                	addi	sp,sp,-48
    2684:	d622                	sw	s0,44(sp)
    2686:	1800                	addi	s0,sp,48
    2688:	fca42e23          	sw	a0,-36(s0)
    268c:	fcb42c23          	sw	a1,-40(s0)
    2690:	fe042623          	sw	zero,-20(s0)
    2694:	fdc42783          	lw	a5,-36(s0)
    2698:	439c                	lw	a5,0(a5)
    269a:	fef42623          	sw	a5,-20(s0)
    269e:	fec42703          	lw	a4,-20(s0)
    26a2:	77e1                	lui	a5,0xffff8
    26a4:	07bd                	addi	a5,a5,15
    26a6:	8ff9                	and	a5,a5,a4
    26a8:	fef42623          	sw	a5,-20(s0)
    26ac:	fd842783          	lw	a5,-40(s0)
    26b0:	4798                	lw	a4,8(a5)
    26b2:	fd842783          	lw	a5,-40(s0)
    26b6:	539c                	lw	a5,32(a5)
    26b8:	8f5d                	or	a4,a4,a5
    26ba:	fd842783          	lw	a5,-40(s0)
    26be:	4b9c                	lw	a5,16(a5)
    26c0:	8f5d                	or	a4,a4,a5
    26c2:	fd842783          	lw	a5,-40(s0)
    26c6:	4bdc                	lw	a5,20(a5)
    26c8:	8f5d                	or	a4,a4,a5
    26ca:	fd842783          	lw	a5,-40(s0)
    26ce:	4f9c                	lw	a5,24(a5)
    26d0:	8f5d                	or	a4,a4,a5
    26d2:	fd842783          	lw	a5,-40(s0)
    26d6:	4fdc                	lw	a5,28(a5)
    26d8:	8f5d                	or	a4,a4,a5
    26da:	fd842783          	lw	a5,-40(s0)
    26de:	53dc                	lw	a5,36(a5)
    26e0:	8f5d                	or	a4,a4,a5
    26e2:	fd842783          	lw	a5,-40(s0)
    26e6:	579c                	lw	a5,40(a5)
    26e8:	8fd9                	or	a5,a5,a4
    26ea:	fec42703          	lw	a4,-20(s0)
    26ee:	8fd9                	or	a5,a5,a4
    26f0:	fef42623          	sw	a5,-20(s0)
    26f4:	fdc42783          	lw	a5,-36(s0)
    26f8:	fec42703          	lw	a4,-20(s0)
    26fc:	c398                	sw	a4,0(a5)
    26fe:	fd842783          	lw	a5,-40(s0)
    2702:	47d8                	lw	a4,12(a5)
    2704:	fdc42783          	lw	a5,-36(s0)
    2708:	c3d8                	sw	a4,4(a5)
    270a:	fd842783          	lw	a5,-40(s0)
    270e:	4398                	lw	a4,0(a5)
    2710:	fdc42783          	lw	a5,-36(s0)
    2714:	c798                	sw	a4,8(a5)
    2716:	fd842783          	lw	a5,-40(s0)
    271a:	43d8                	lw	a4,4(a5)
    271c:	fdc42783          	lw	a5,-36(s0)
    2720:	c7d8                	sw	a4,12(a5)
    2722:	0001                	nop
    2724:	5432                	lw	s0,44(sp)
    2726:	6145                	addi	sp,sp,48
    2728:	8082                	ret

0000272a <DMA_Cmd>:
    272a:	1101                	addi	sp,sp,-32
    272c:	ce22                	sw	s0,28(sp)
    272e:	1000                	addi	s0,sp,32
    2730:	fea42623          	sw	a0,-20(s0)
    2734:	feb42423          	sw	a1,-24(s0)
    2738:	fe842783          	lw	a5,-24(s0)
    273c:	cb91                	beqz	a5,2750 <DMA_Cmd+0x26>
    273e:	fec42783          	lw	a5,-20(s0)
    2742:	439c                	lw	a5,0(a5)
    2744:	0017e713          	ori	a4,a5,1
    2748:	fec42783          	lw	a5,-20(s0)
    274c:	c398                	sw	a4,0(a5)
    274e:	a811                	j	2762 <DMA_Cmd+0x38>
    2750:	fec42783          	lw	a5,-20(s0)
    2754:	4398                	lw	a4,0(a5)
    2756:	67c1                	lui	a5,0x10
    2758:	17f9                	addi	a5,a5,-2
    275a:	8f7d                	and	a4,a4,a5
    275c:	fec42783          	lw	a5,-20(s0)
    2760:	c398                	sw	a4,0(a5)
    2762:	0001                	nop
    2764:	4472                	lw	s0,28(sp)
    2766:	6105                	addi	sp,sp,32
    2768:	8082                	ret

0000276a <DMA_SetCurrDataCounter>:
    276a:	1101                	addi	sp,sp,-32
    276c:	ce22                	sw	s0,28(sp)
    276e:	1000                	addi	s0,sp,32
    2770:	fea42623          	sw	a0,-20(s0)
    2774:	87ae                	mv	a5,a1
    2776:	fef41523          	sh	a5,-22(s0)
    277a:	fea45703          	lhu	a4,-22(s0)
    277e:	fec42783          	lw	a5,-20(s0)
    2782:	c3d8                	sw	a4,4(a5)
    2784:	0001                	nop
    2786:	4472                	lw	s0,28(sp)
    2788:	6105                	addi	sp,sp,32
    278a:	8082                	ret

0000278c <DMA_GetFlagStatus>:
    278c:	7179                	addi	sp,sp,-48
    278e:	d622                	sw	s0,44(sp)
    2790:	1800                	addi	s0,sp,48
    2792:	fca42e23          	sw	a0,-36(s0)
    2796:	fe042623          	sw	zero,-20(s0)
    279a:	fe042423          	sw	zero,-24(s0)
    279e:	fdc42703          	lw	a4,-36(s0)
    27a2:	100007b7          	lui	a5,0x10000
    27a6:	8ff9                	and	a5,a5,a4
    27a8:	cb89                	beqz	a5,27ba <DMA_GetFlagStatus+0x2e>
    27aa:	400207b7          	lui	a5,0x40020
    27ae:	40078793          	addi	a5,a5,1024 # 40020400 <_eusrstack+0x20018400>
    27b2:	439c                	lw	a5,0(a5)
    27b4:	fef42423          	sw	a5,-24(s0)
    27b8:	a025                	j	27e0 <DMA_GetFlagStatus+0x54>
    27ba:	fdc42703          	lw	a4,-36(s0)
    27be:	200007b7          	lui	a5,0x20000
    27c2:	8ff9                	and	a5,a5,a4
    27c4:	cb89                	beqz	a5,27d6 <DMA_GetFlagStatus+0x4a>
    27c6:	400207b7          	lui	a5,0x40020
    27ca:	4d078793          	addi	a5,a5,1232 # 400204d0 <_eusrstack+0x200184d0>
    27ce:	439c                	lw	a5,0(a5)
    27d0:	fef42423          	sw	a5,-24(s0)
    27d4:	a031                	j	27e0 <DMA_GetFlagStatus+0x54>
    27d6:	400207b7          	lui	a5,0x40020
    27da:	439c                	lw	a5,0(a5)
    27dc:	fef42423          	sw	a5,-24(s0)
    27e0:	fe842703          	lw	a4,-24(s0)
    27e4:	fdc42783          	lw	a5,-36(s0)
    27e8:	8ff9                	and	a5,a5,a4
    27ea:	c789                	beqz	a5,27f4 <DMA_GetFlagStatus+0x68>
    27ec:	4785                	li	a5,1
    27ee:	fef42623          	sw	a5,-20(s0)
    27f2:	a019                	j	27f8 <DMA_GetFlagStatus+0x6c>
    27f4:	fe042623          	sw	zero,-20(s0)
    27f8:	fec42783          	lw	a5,-20(s0)
    27fc:	853e                	mv	a0,a5
    27fe:	5432                	lw	s0,44(sp)
    2800:	6145                	addi	sp,sp,48
    2802:	8082                	ret

00002804 <DMA_ClearFlag>:
    2804:	1101                	addi	sp,sp,-32
    2806:	ce22                	sw	s0,28(sp)
    2808:	1000                	addi	s0,sp,32
    280a:	fea42623          	sw	a0,-20(s0)
    280e:	fec42703          	lw	a4,-20(s0)
    2812:	100007b7          	lui	a5,0x10000
    2816:	8ff9                	and	a5,a5,a4
    2818:	cb89                	beqz	a5,282a <DMA_ClearFlag+0x26>
    281a:	400207b7          	lui	a5,0x40020
    281e:	40078793          	addi	a5,a5,1024 # 40020400 <_eusrstack+0x20018400>
    2822:	fec42703          	lw	a4,-20(s0)
    2826:	c3d8                	sw	a4,4(a5)
    2828:	a025                	j	2850 <DMA_ClearFlag+0x4c>
    282a:	fec42703          	lw	a4,-20(s0)
    282e:	200007b7          	lui	a5,0x20000
    2832:	8ff9                	and	a5,a5,a4
    2834:	cb89                	beqz	a5,2846 <DMA_ClearFlag+0x42>
    2836:	400207b7          	lui	a5,0x40020
    283a:	4d078793          	addi	a5,a5,1232 # 400204d0 <_eusrstack+0x200184d0>
    283e:	fec42703          	lw	a4,-20(s0)
    2842:	c3d8                	sw	a4,4(a5)
    2844:	a031                	j	2850 <DMA_ClearFlag+0x4c>
    2846:	400207b7          	lui	a5,0x40020
    284a:	fec42703          	lw	a4,-20(s0)
    284e:	c3d8                	sw	a4,4(a5)
    2850:	0001                	nop
    2852:	4472                	lw	s0,28(sp)
    2854:	6105                	addi	sp,sp,32
    2856:	8082                	ret

00002858 <EXTI_Init>:
    2858:	7179                	addi	sp,sp,-48
    285a:	d622                	sw	s0,44(sp)
    285c:	1800                	addi	s0,sp,48
    285e:	fca42e23          	sw	a0,-36(s0)
    2862:	fe042623          	sw	zero,-20(s0)
    2866:	400107b7          	lui	a5,0x40010
    286a:	40078793          	addi	a5,a5,1024 # 40010400 <_eusrstack+0x20008400>
    286e:	fef42623          	sw	a5,-20(s0)
    2872:	fdc42783          	lw	a5,-36(s0)
    2876:	47dc                	lw	a5,12(a5)
    2878:	12078063          	beqz	a5,2998 <EXTI_Init+0x140>
    287c:	400107b7          	lui	a5,0x40010
    2880:	40078793          	addi	a5,a5,1024 # 40010400 <_eusrstack+0x20008400>
    2884:	4394                	lw	a3,0(a5)
    2886:	fdc42783          	lw	a5,-36(s0)
    288a:	439c                	lw	a5,0(a5)
    288c:	fff7c713          	not	a4,a5
    2890:	400107b7          	lui	a5,0x40010
    2894:	40078793          	addi	a5,a5,1024 # 40010400 <_eusrstack+0x20008400>
    2898:	8f75                	and	a4,a4,a3
    289a:	c398                	sw	a4,0(a5)
    289c:	400107b7          	lui	a5,0x40010
    28a0:	40078793          	addi	a5,a5,1024 # 40010400 <_eusrstack+0x20008400>
    28a4:	43d4                	lw	a3,4(a5)
    28a6:	fdc42783          	lw	a5,-36(s0)
    28aa:	439c                	lw	a5,0(a5)
    28ac:	fff7c713          	not	a4,a5
    28b0:	400107b7          	lui	a5,0x40010
    28b4:	40078793          	addi	a5,a5,1024 # 40010400 <_eusrstack+0x20008400>
    28b8:	8f75                	and	a4,a4,a3
    28ba:	c3d8                	sw	a4,4(a5)
    28bc:	fdc42783          	lw	a5,-36(s0)
    28c0:	43dc                	lw	a5,4(a5)
    28c2:	fec42703          	lw	a4,-20(s0)
    28c6:	97ba                	add	a5,a5,a4
    28c8:	fef42623          	sw	a5,-20(s0)
    28cc:	fec42783          	lw	a5,-20(s0)
    28d0:	4394                	lw	a3,0(a5)
    28d2:	fdc42783          	lw	a5,-36(s0)
    28d6:	4398                	lw	a4,0(a5)
    28d8:	fec42783          	lw	a5,-20(s0)
    28dc:	8f55                	or	a4,a4,a3
    28de:	c398                	sw	a4,0(a5)
    28e0:	400107b7          	lui	a5,0x40010
    28e4:	40078793          	addi	a5,a5,1024 # 40010400 <_eusrstack+0x20008400>
    28e8:	4794                	lw	a3,8(a5)
    28ea:	fdc42783          	lw	a5,-36(s0)
    28ee:	439c                	lw	a5,0(a5)
    28f0:	fff7c713          	not	a4,a5
    28f4:	400107b7          	lui	a5,0x40010
    28f8:	40078793          	addi	a5,a5,1024 # 40010400 <_eusrstack+0x20008400>
    28fc:	8f75                	and	a4,a4,a3
    28fe:	c798                	sw	a4,8(a5)
    2900:	400107b7          	lui	a5,0x40010
    2904:	40078793          	addi	a5,a5,1024 # 40010400 <_eusrstack+0x20008400>
    2908:	47d4                	lw	a3,12(a5)
    290a:	fdc42783          	lw	a5,-36(s0)
    290e:	439c                	lw	a5,0(a5)
    2910:	fff7c713          	not	a4,a5
    2914:	400107b7          	lui	a5,0x40010
    2918:	40078793          	addi	a5,a5,1024 # 40010400 <_eusrstack+0x20008400>
    291c:	8f75                	and	a4,a4,a3
    291e:	c7d8                	sw	a4,12(a5)
    2920:	fdc42783          	lw	a5,-36(s0)
    2924:	4798                	lw	a4,8(a5)
    2926:	47c1                	li	a5,16
    2928:	02f71f63          	bne	a4,a5,2966 <EXTI_Init+0x10e>
    292c:	400107b7          	lui	a5,0x40010
    2930:	40078793          	addi	a5,a5,1024 # 40010400 <_eusrstack+0x20008400>
    2934:	4794                	lw	a3,8(a5)
    2936:	fdc42783          	lw	a5,-36(s0)
    293a:	4398                	lw	a4,0(a5)
    293c:	400107b7          	lui	a5,0x40010
    2940:	40078793          	addi	a5,a5,1024 # 40010400 <_eusrstack+0x20008400>
    2944:	8f55                	or	a4,a4,a3
    2946:	c798                	sw	a4,8(a5)
    2948:	400107b7          	lui	a5,0x40010
    294c:	40078793          	addi	a5,a5,1024 # 40010400 <_eusrstack+0x20008400>
    2950:	47d4                	lw	a3,12(a5)
    2952:	fdc42783          	lw	a5,-36(s0)
    2956:	4398                	lw	a4,0(a5)
    2958:	400107b7          	lui	a5,0x40010
    295c:	40078793          	addi	a5,a5,1024 # 40010400 <_eusrstack+0x20008400>
    2960:	8f55                	or	a4,a4,a3
    2962:	c7d8                	sw	a4,12(a5)
    2964:	a8b1                	j	29c0 <EXTI_Init+0x168>
    2966:	400107b7          	lui	a5,0x40010
    296a:	40078793          	addi	a5,a5,1024 # 40010400 <_eusrstack+0x20008400>
    296e:	fef42623          	sw	a5,-20(s0)
    2972:	fdc42783          	lw	a5,-36(s0)
    2976:	479c                	lw	a5,8(a5)
    2978:	fec42703          	lw	a4,-20(s0)
    297c:	97ba                	add	a5,a5,a4
    297e:	fef42623          	sw	a5,-20(s0)
    2982:	fec42783          	lw	a5,-20(s0)
    2986:	4394                	lw	a3,0(a5)
    2988:	fdc42783          	lw	a5,-36(s0)
    298c:	4398                	lw	a4,0(a5)
    298e:	fec42783          	lw	a5,-20(s0)
    2992:	8f55                	or	a4,a4,a3
    2994:	c398                	sw	a4,0(a5)
    2996:	a02d                	j	29c0 <EXTI_Init+0x168>
    2998:	fdc42783          	lw	a5,-36(s0)
    299c:	43dc                	lw	a5,4(a5)
    299e:	fec42703          	lw	a4,-20(s0)
    29a2:	97ba                	add	a5,a5,a4
    29a4:	fef42623          	sw	a5,-20(s0)
    29a8:	fec42783          	lw	a5,-20(s0)
    29ac:	4394                	lw	a3,0(a5)
    29ae:	fdc42783          	lw	a5,-36(s0)
    29b2:	439c                	lw	a5,0(a5)
    29b4:	fff7c713          	not	a4,a5
    29b8:	fec42783          	lw	a5,-20(s0)
    29bc:	8f75                	and	a4,a4,a3
    29be:	c398                	sw	a4,0(a5)
    29c0:	0001                	nop
    29c2:	5432                	lw	s0,44(sp)
    29c4:	6145                	addi	sp,sp,48
    29c6:	8082                	ret

000029c8 <EXTI_GetFlagStatus>:
    29c8:	7179                	addi	sp,sp,-48
    29ca:	d622                	sw	s0,44(sp)
    29cc:	1800                	addi	s0,sp,48
    29ce:	fca42e23          	sw	a0,-36(s0)
    29d2:	fe042623          	sw	zero,-20(s0)
    29d6:	400107b7          	lui	a5,0x40010
    29da:	40078793          	addi	a5,a5,1024 # 40010400 <_eusrstack+0x20008400>
    29de:	4bd8                	lw	a4,20(a5)
    29e0:	fdc42783          	lw	a5,-36(s0)
    29e4:	8ff9                	and	a5,a5,a4
    29e6:	c789                	beqz	a5,29f0 <EXTI_GetFlagStatus+0x28>
    29e8:	4785                	li	a5,1
    29ea:	fef42623          	sw	a5,-20(s0)
    29ee:	a019                	j	29f4 <EXTI_GetFlagStatus+0x2c>
    29f0:	fe042623          	sw	zero,-20(s0)
    29f4:	fec42783          	lw	a5,-20(s0)
    29f8:	853e                	mv	a0,a5
    29fa:	5432                	lw	s0,44(sp)
    29fc:	6145                	addi	sp,sp,48
    29fe:	8082                	ret

00002a00 <EXTI_ClearFlag>:
    2a00:	1101                	addi	sp,sp,-32
    2a02:	ce22                	sw	s0,28(sp)
    2a04:	1000                	addi	s0,sp,32
    2a06:	fea42623          	sw	a0,-20(s0)
    2a0a:	400107b7          	lui	a5,0x40010
    2a0e:	40078793          	addi	a5,a5,1024 # 40010400 <_eusrstack+0x20008400>
    2a12:	fec42703          	lw	a4,-20(s0)
    2a16:	cbd8                	sw	a4,20(a5)
    2a18:	0001                	nop
    2a1a:	4472                	lw	s0,28(sp)
    2a1c:	6105                	addi	sp,sp,32
    2a1e:	8082                	ret

00002a20 <EXTI_GetITStatus>:
    2a20:	7179                	addi	sp,sp,-48
    2a22:	d622                	sw	s0,44(sp)
    2a24:	1800                	addi	s0,sp,48
    2a26:	fca42e23          	sw	a0,-36(s0)
    2a2a:	fe042623          	sw	zero,-20(s0)
    2a2e:	fe042423          	sw	zero,-24(s0)
    2a32:	400107b7          	lui	a5,0x40010
    2a36:	40078793          	addi	a5,a5,1024 # 40010400 <_eusrstack+0x20008400>
    2a3a:	439c                	lw	a5,0(a5)
    2a3c:	fdc42703          	lw	a4,-36(s0)
    2a40:	8ff9                	and	a5,a5,a4
    2a42:	fef42423          	sw	a5,-24(s0)
    2a46:	400107b7          	lui	a5,0x40010
    2a4a:	40078793          	addi	a5,a5,1024 # 40010400 <_eusrstack+0x20008400>
    2a4e:	4bd8                	lw	a4,20(a5)
    2a50:	fdc42783          	lw	a5,-36(s0)
    2a54:	8ff9                	and	a5,a5,a4
    2a56:	cb81                	beqz	a5,2a66 <EXTI_GetITStatus+0x46>
    2a58:	fe842783          	lw	a5,-24(s0)
    2a5c:	c789                	beqz	a5,2a66 <EXTI_GetITStatus+0x46>
    2a5e:	4785                	li	a5,1
    2a60:	fef42623          	sw	a5,-20(s0)
    2a64:	a019                	j	2a6a <EXTI_GetITStatus+0x4a>
    2a66:	fe042623          	sw	zero,-20(s0)
    2a6a:	fec42783          	lw	a5,-20(s0)
    2a6e:	853e                	mv	a0,a5
    2a70:	5432                	lw	s0,44(sp)
    2a72:	6145                	addi	sp,sp,48
    2a74:	8082                	ret

00002a76 <EXTI_ClearITPendingBit>:
    2a76:	1101                	addi	sp,sp,-32
    2a78:	ce22                	sw	s0,28(sp)
    2a7a:	1000                	addi	s0,sp,32
    2a7c:	fea42623          	sw	a0,-20(s0)
    2a80:	400107b7          	lui	a5,0x40010
    2a84:	40078793          	addi	a5,a5,1024 # 40010400 <_eusrstack+0x20008400>
    2a88:	fec42703          	lw	a4,-20(s0)
    2a8c:	cbd8                	sw	a4,20(a5)
    2a8e:	0001                	nop
    2a90:	4472                	lw	s0,28(sp)
    2a92:	6105                	addi	sp,sp,32
    2a94:	8082                	ret

00002a96 <GPIO_Init>:
    2a96:	7139                	addi	sp,sp,-64
    2a98:	de22                	sw	s0,60(sp)
    2a9a:	0080                	addi	s0,sp,64
    2a9c:	fca42623          	sw	a0,-52(s0)
    2aa0:	fcb42423          	sw	a1,-56(s0)
    2aa4:	fe042623          	sw	zero,-20(s0)
    2aa8:	fe042023          	sw	zero,-32(s0)
    2aac:	fe042423          	sw	zero,-24(s0)
    2ab0:	fc042e23          	sw	zero,-36(s0)
    2ab4:	fe042223          	sw	zero,-28(s0)
    2ab8:	fc042c23          	sw	zero,-40(s0)
    2abc:	fc842783          	lw	a5,-56(s0)
    2ac0:	479c                	lw	a5,8(a5)
    2ac2:	8bbd                	andi	a5,a5,15
    2ac4:	fef42623          	sw	a5,-20(s0)
    2ac8:	fc842783          	lw	a5,-56(s0)
    2acc:	479c                	lw	a5,8(a5)
    2ace:	8bc1                	andi	a5,a5,16
    2ad0:	cb89                	beqz	a5,2ae2 <GPIO_Init+0x4c>
    2ad2:	fc842783          	lw	a5,-56(s0)
    2ad6:	43dc                	lw	a5,4(a5)
    2ad8:	fec42703          	lw	a4,-20(s0)
    2adc:	8fd9                	or	a5,a5,a4
    2ade:	fef42623          	sw	a5,-20(s0)
    2ae2:	fc842783          	lw	a5,-56(s0)
    2ae6:	239e                	lhu	a5,0(a5)
    2ae8:	0ff7f793          	andi	a5,a5,255
    2aec:	cfe9                	beqz	a5,2bc6 <GPIO_Init+0x130>
    2aee:	fcc42783          	lw	a5,-52(s0)
    2af2:	439c                	lw	a5,0(a5)
    2af4:	fef42223          	sw	a5,-28(s0)
    2af8:	fe042423          	sw	zero,-24(s0)
    2afc:	a85d                	j	2bb2 <GPIO_Init+0x11c>
    2afe:	fe842783          	lw	a5,-24(s0)
    2b02:	4705                	li	a4,1
    2b04:	00f717b3          	sll	a5,a4,a5
    2b08:	fcf42e23          	sw	a5,-36(s0)
    2b0c:	fc842783          	lw	a5,-56(s0)
    2b10:	239e                	lhu	a5,0(a5)
    2b12:	873e                	mv	a4,a5
    2b14:	fdc42783          	lw	a5,-36(s0)
    2b18:	8ff9                	and	a5,a5,a4
    2b1a:	fef42023          	sw	a5,-32(s0)
    2b1e:	fe042703          	lw	a4,-32(s0)
    2b22:	fdc42783          	lw	a5,-36(s0)
    2b26:	08f71163          	bne	a4,a5,2ba8 <GPIO_Init+0x112>
    2b2a:	fe842783          	lw	a5,-24(s0)
    2b2e:	078a                	slli	a5,a5,0x2
    2b30:	fcf42e23          	sw	a5,-36(s0)
    2b34:	fdc42783          	lw	a5,-36(s0)
    2b38:	473d                	li	a4,15
    2b3a:	00f717b3          	sll	a5,a4,a5
    2b3e:	fcf42c23          	sw	a5,-40(s0)
    2b42:	fd842783          	lw	a5,-40(s0)
    2b46:	fff7c793          	not	a5,a5
    2b4a:	fe442703          	lw	a4,-28(s0)
    2b4e:	8ff9                	and	a5,a5,a4
    2b50:	fef42223          	sw	a5,-28(s0)
    2b54:	fdc42783          	lw	a5,-36(s0)
    2b58:	fec42703          	lw	a4,-20(s0)
    2b5c:	00f717b3          	sll	a5,a4,a5
    2b60:	fe442703          	lw	a4,-28(s0)
    2b64:	8fd9                	or	a5,a5,a4
    2b66:	fef42223          	sw	a5,-28(s0)
    2b6a:	fc842783          	lw	a5,-56(s0)
    2b6e:	4798                	lw	a4,8(a5)
    2b70:	02800793          	li	a5,40
    2b74:	00f71b63          	bne	a4,a5,2b8a <GPIO_Init+0xf4>
    2b78:	fe842783          	lw	a5,-24(s0)
    2b7c:	4705                	li	a4,1
    2b7e:	00f71733          	sll	a4,a4,a5
    2b82:	fcc42783          	lw	a5,-52(s0)
    2b86:	cbd8                	sw	a4,20(a5)
    2b88:	a005                	j	2ba8 <GPIO_Init+0x112>
    2b8a:	fc842783          	lw	a5,-56(s0)
    2b8e:	4798                	lw	a4,8(a5)
    2b90:	04800793          	li	a5,72
    2b94:	00f71a63          	bne	a4,a5,2ba8 <GPIO_Init+0x112>
    2b98:	fe842783          	lw	a5,-24(s0)
    2b9c:	4705                	li	a4,1
    2b9e:	00f71733          	sll	a4,a4,a5
    2ba2:	fcc42783          	lw	a5,-52(s0)
    2ba6:	cb98                	sw	a4,16(a5)
    2ba8:	fe842783          	lw	a5,-24(s0)
    2bac:	0785                	addi	a5,a5,1
    2bae:	fef42423          	sw	a5,-24(s0)
    2bb2:	fe842703          	lw	a4,-24(s0)
    2bb6:	479d                	li	a5,7
    2bb8:	f4e7f3e3          	bgeu	a5,a4,2afe <GPIO_Init+0x68>
    2bbc:	fcc42783          	lw	a5,-52(s0)
    2bc0:	fe442703          	lw	a4,-28(s0)
    2bc4:	c398                	sw	a4,0(a5)
    2bc6:	fc842783          	lw	a5,-56(s0)
    2bca:	239a                	lhu	a4,0(a5)
    2bcc:	0ff00793          	li	a5,255
    2bd0:	0ee7f063          	bgeu	a5,a4,2cb0 <GPIO_Init+0x21a>
    2bd4:	fcc42783          	lw	a5,-52(s0)
    2bd8:	43dc                	lw	a5,4(a5)
    2bda:	fef42223          	sw	a5,-28(s0)
    2bde:	fe042423          	sw	zero,-24(s0)
    2be2:	a86d                	j	2c9c <GPIO_Init+0x206>
    2be4:	fe842783          	lw	a5,-24(s0)
    2be8:	07a1                	addi	a5,a5,8
    2bea:	4705                	li	a4,1
    2bec:	00f717b3          	sll	a5,a4,a5
    2bf0:	fcf42e23          	sw	a5,-36(s0)
    2bf4:	fc842783          	lw	a5,-56(s0)
    2bf8:	239e                	lhu	a5,0(a5)
    2bfa:	873e                	mv	a4,a5
    2bfc:	fdc42783          	lw	a5,-36(s0)
    2c00:	8ff9                	and	a5,a5,a4
    2c02:	fef42023          	sw	a5,-32(s0)
    2c06:	fe042703          	lw	a4,-32(s0)
    2c0a:	fdc42783          	lw	a5,-36(s0)
    2c0e:	08f71263          	bne	a4,a5,2c92 <GPIO_Init+0x1fc>
    2c12:	fe842783          	lw	a5,-24(s0)
    2c16:	078a                	slli	a5,a5,0x2
    2c18:	fcf42e23          	sw	a5,-36(s0)
    2c1c:	fdc42783          	lw	a5,-36(s0)
    2c20:	473d                	li	a4,15
    2c22:	00f717b3          	sll	a5,a4,a5
    2c26:	fcf42c23          	sw	a5,-40(s0)
    2c2a:	fd842783          	lw	a5,-40(s0)
    2c2e:	fff7c793          	not	a5,a5
    2c32:	fe442703          	lw	a4,-28(s0)
    2c36:	8ff9                	and	a5,a5,a4
    2c38:	fef42223          	sw	a5,-28(s0)
    2c3c:	fdc42783          	lw	a5,-36(s0)
    2c40:	fec42703          	lw	a4,-20(s0)
    2c44:	00f717b3          	sll	a5,a4,a5
    2c48:	fe442703          	lw	a4,-28(s0)
    2c4c:	8fd9                	or	a5,a5,a4
    2c4e:	fef42223          	sw	a5,-28(s0)
    2c52:	fc842783          	lw	a5,-56(s0)
    2c56:	4798                	lw	a4,8(a5)
    2c58:	02800793          	li	a5,40
    2c5c:	00f71b63          	bne	a4,a5,2c72 <GPIO_Init+0x1dc>
    2c60:	fe842783          	lw	a5,-24(s0)
    2c64:	07a1                	addi	a5,a5,8
    2c66:	4705                	li	a4,1
    2c68:	00f71733          	sll	a4,a4,a5
    2c6c:	fcc42783          	lw	a5,-52(s0)
    2c70:	cbd8                	sw	a4,20(a5)
    2c72:	fc842783          	lw	a5,-56(s0)
    2c76:	4798                	lw	a4,8(a5)
    2c78:	04800793          	li	a5,72
    2c7c:	00f71b63          	bne	a4,a5,2c92 <GPIO_Init+0x1fc>
    2c80:	fe842783          	lw	a5,-24(s0)
    2c84:	07a1                	addi	a5,a5,8
    2c86:	4705                	li	a4,1
    2c88:	00f71733          	sll	a4,a4,a5
    2c8c:	fcc42783          	lw	a5,-52(s0)
    2c90:	cb98                	sw	a4,16(a5)
    2c92:	fe842783          	lw	a5,-24(s0)
    2c96:	0785                	addi	a5,a5,1
    2c98:	fef42423          	sw	a5,-24(s0)
    2c9c:	fe842703          	lw	a4,-24(s0)
    2ca0:	479d                	li	a5,7
    2ca2:	f4e7f1e3          	bgeu	a5,a4,2be4 <GPIO_Init+0x14e>
    2ca6:	fcc42783          	lw	a5,-52(s0)
    2caa:	fe442703          	lw	a4,-28(s0)
    2cae:	c3d8                	sw	a4,4(a5)
    2cb0:	0001                	nop
    2cb2:	5472                	lw	s0,60(sp)
    2cb4:	6121                	addi	sp,sp,64
    2cb6:	8082                	ret

00002cb8 <GPIO_ReadInputDataBit>:
    2cb8:	7179                	addi	sp,sp,-48
    2cba:	d622                	sw	s0,44(sp)
    2cbc:	1800                	addi	s0,sp,48
    2cbe:	fca42e23          	sw	a0,-36(s0)
    2cc2:	87ae                	mv	a5,a1
    2cc4:	fcf41d23          	sh	a5,-38(s0)
    2cc8:	fe0407a3          	sb	zero,-17(s0)
    2ccc:	fdc42783          	lw	a5,-36(s0)
    2cd0:	4798                	lw	a4,8(a5)
    2cd2:	fda45783          	lhu	a5,-38(s0)
    2cd6:	8ff9                	and	a5,a5,a4
    2cd8:	c789                	beqz	a5,2ce2 <GPIO_ReadInputDataBit+0x2a>
    2cda:	4785                	li	a5,1
    2cdc:	fef407a3          	sb	a5,-17(s0)
    2ce0:	a019                	j	2ce6 <GPIO_ReadInputDataBit+0x2e>
    2ce2:	fe0407a3          	sb	zero,-17(s0)
    2ce6:	fef44783          	lbu	a5,-17(s0)
    2cea:	853e                	mv	a0,a5
    2cec:	5432                	lw	s0,44(sp)
    2cee:	6145                	addi	sp,sp,48
    2cf0:	8082                	ret

00002cf2 <GPIO_SetBits>:
    2cf2:	1101                	addi	sp,sp,-32
    2cf4:	ce22                	sw	s0,28(sp)
    2cf6:	1000                	addi	s0,sp,32
    2cf8:	fea42623          	sw	a0,-20(s0)
    2cfc:	87ae                	mv	a5,a1
    2cfe:	fef41523          	sh	a5,-22(s0)
    2d02:	fea45703          	lhu	a4,-22(s0)
    2d06:	fec42783          	lw	a5,-20(s0)
    2d0a:	cb98                	sw	a4,16(a5)
    2d0c:	0001                	nop
    2d0e:	4472                	lw	s0,28(sp)
    2d10:	6105                	addi	sp,sp,32
    2d12:	8082                	ret

00002d14 <GPIO_ResetBits>:
    2d14:	1101                	addi	sp,sp,-32
    2d16:	ce22                	sw	s0,28(sp)
    2d18:	1000                	addi	s0,sp,32
    2d1a:	fea42623          	sw	a0,-20(s0)
    2d1e:	87ae                	mv	a5,a1
    2d20:	fef41523          	sh	a5,-22(s0)
    2d24:	fea45703          	lhu	a4,-22(s0)
    2d28:	fec42783          	lw	a5,-20(s0)
    2d2c:	cbd8                	sw	a4,20(a5)
    2d2e:	0001                	nop
    2d30:	4472                	lw	s0,28(sp)
    2d32:	6105                	addi	sp,sp,32
    2d34:	8082                	ret

00002d36 <GPIO_PinRemapConfig>:
    2d36:	7179                	addi	sp,sp,-48
    2d38:	d622                	sw	s0,44(sp)
    2d3a:	1800                	addi	s0,sp,48
    2d3c:	fca42e23          	sw	a0,-36(s0)
    2d40:	fcb42c23          	sw	a1,-40(s0)
    2d44:	fe042423          	sw	zero,-24(s0)
    2d48:	fe042223          	sw	zero,-28(s0)
    2d4c:	fe042623          	sw	zero,-20(s0)
    2d50:	fe042023          	sw	zero,-32(s0)
    2d54:	fdc42783          	lw	a5,-36(s0)
    2d58:	0007d863          	bgez	a5,2d68 <GPIO_PinRemapConfig+0x32>
    2d5c:	400107b7          	lui	a5,0x40010
    2d60:	4fdc                	lw	a5,28(a5)
    2d62:	fef42623          	sw	a5,-20(s0)
    2d66:	a031                	j	2d72 <GPIO_PinRemapConfig+0x3c>
    2d68:	400107b7          	lui	a5,0x40010
    2d6c:	43dc                	lw	a5,4(a5)
    2d6e:	fef42623          	sw	a5,-20(s0)
    2d72:	fdc42783          	lw	a5,-36(s0)
    2d76:	83c1                	srli	a5,a5,0x10
    2d78:	8bbd                	andi	a5,a5,15
    2d7a:	fef42023          	sw	a5,-32(s0)
    2d7e:	fdc42703          	lw	a4,-36(s0)
    2d82:	67c1                	lui	a5,0x10
    2d84:	17fd                	addi	a5,a5,-1
    2d86:	8ff9                	and	a5,a5,a4
    2d88:	fef42423          	sw	a5,-24(s0)
    2d8c:	fdc42783          	lw	a5,-36(s0)
    2d90:	0807d663          	bgez	a5,2e1c <GPIO_PinRemapConfig+0xe6>
    2d94:	fdc42703          	lw	a4,-36(s0)
    2d98:	003007b7          	lui	a5,0x300
    2d9c:	8f7d                	and	a4,a4,a5
    2d9e:	003007b7          	lui	a5,0x300
    2da2:	02f71463          	bne	a4,a5,2dca <GPIO_PinRemapConfig+0x94>
    2da6:	fe042783          	lw	a5,-32(s0)
    2daa:	07c1                	addi	a5,a5,16
    2dac:	470d                	li	a4,3
    2dae:	00f717b3          	sll	a5,a4,a5
    2db2:	fef42223          	sw	a5,-28(s0)
    2db6:	fe442783          	lw	a5,-28(s0)
    2dba:	fff7c793          	not	a5,a5
    2dbe:	fec42703          	lw	a4,-20(s0)
    2dc2:	8ff9                	and	a5,a5,a4
    2dc4:	fef42623          	sw	a5,-20(s0)
    2dc8:	a8d5                	j	2ebc <GPIO_PinRemapConfig+0x186>
    2dca:	fdc42703          	lw	a4,-36(s0)
    2dce:	001007b7          	lui	a5,0x100
    2dd2:	8ff9                	and	a5,a5,a4
    2dd4:	c395                	beqz	a5,2df8 <GPIO_PinRemapConfig+0xc2>
    2dd6:	fe042783          	lw	a5,-32(s0)
    2dda:	470d                	li	a4,3
    2ddc:	00f717b3          	sll	a5,a4,a5
    2de0:	fef42223          	sw	a5,-28(s0)
    2de4:	fe442783          	lw	a5,-28(s0)
    2de8:	fff7c793          	not	a5,a5
    2dec:	fec42703          	lw	a4,-20(s0)
    2df0:	8ff9                	and	a5,a5,a4
    2df2:	fef42623          	sw	a5,-20(s0)
    2df6:	a0d9                	j	2ebc <GPIO_PinRemapConfig+0x186>
    2df8:	fdc42783          	lw	a5,-36(s0)
    2dfc:	83d5                	srli	a5,a5,0x15
    2dfe:	3ff7f793          	andi	a5,a5,1023
    2e02:	0792                	slli	a5,a5,0x4
    2e04:	fe842703          	lw	a4,-24(s0)
    2e08:	00f717b3          	sll	a5,a4,a5
    2e0c:	fff7c793          	not	a5,a5
    2e10:	fec42703          	lw	a4,-20(s0)
    2e14:	8ff9                	and	a5,a5,a4
    2e16:	fef42623          	sw	a5,-20(s0)
    2e1a:	a04d                	j	2ebc <GPIO_PinRemapConfig+0x186>
    2e1c:	fdc42703          	lw	a4,-36(s0)
    2e20:	003007b7          	lui	a5,0x300
    2e24:	8f7d                	and	a4,a4,a5
    2e26:	003007b7          	lui	a5,0x300
    2e2a:	02f71563          	bne	a4,a5,2e54 <GPIO_PinRemapConfig+0x11e>
    2e2e:	fec42703          	lw	a4,-20(s0)
    2e32:	f10007b7          	lui	a5,0xf1000
    2e36:	17fd                	addi	a5,a5,-1
    2e38:	8ff9                	and	a5,a5,a4
    2e3a:	fef42623          	sw	a5,-20(s0)
    2e3e:	400107b7          	lui	a5,0x40010
    2e42:	43d4                	lw	a3,4(a5)
    2e44:	400107b7          	lui	a5,0x40010
    2e48:	f1000737          	lui	a4,0xf1000
    2e4c:	177d                	addi	a4,a4,-1
    2e4e:	8f75                	and	a4,a4,a3
    2e50:	c3d8                	sw	a4,4(a5)
    2e52:	a0ad                	j	2ebc <GPIO_PinRemapConfig+0x186>
    2e54:	fdc42703          	lw	a4,-36(s0)
    2e58:	001007b7          	lui	a5,0x100
    2e5c:	8ff9                	and	a5,a5,a4
    2e5e:	cb8d                	beqz	a5,2e90 <GPIO_PinRemapConfig+0x15a>
    2e60:	fe042783          	lw	a5,-32(s0)
    2e64:	470d                	li	a4,3
    2e66:	00f717b3          	sll	a5,a4,a5
    2e6a:	fef42223          	sw	a5,-28(s0)
    2e6e:	fe442783          	lw	a5,-28(s0)
    2e72:	fff7c793          	not	a5,a5
    2e76:	fec42703          	lw	a4,-20(s0)
    2e7a:	8ff9                	and	a5,a5,a4
    2e7c:	fef42623          	sw	a5,-20(s0)
    2e80:	fec42703          	lw	a4,-20(s0)
    2e84:	0f0007b7          	lui	a5,0xf000
    2e88:	8fd9                	or	a5,a5,a4
    2e8a:	fef42623          	sw	a5,-20(s0)
    2e8e:	a03d                	j	2ebc <GPIO_PinRemapConfig+0x186>
    2e90:	fdc42783          	lw	a5,-36(s0)
    2e94:	83d5                	srli	a5,a5,0x15
    2e96:	0792                	slli	a5,a5,0x4
    2e98:	fe842703          	lw	a4,-24(s0)
    2e9c:	00f717b3          	sll	a5,a4,a5
    2ea0:	fff7c793          	not	a5,a5
    2ea4:	fec42703          	lw	a4,-20(s0)
    2ea8:	8ff9                	and	a5,a5,a4
    2eaa:	fef42623          	sw	a5,-20(s0)
    2eae:	fec42703          	lw	a4,-20(s0)
    2eb2:	0f0007b7          	lui	a5,0xf000
    2eb6:	8fd9                	or	a5,a5,a4
    2eb8:	fef42623          	sw	a5,-20(s0)
    2ebc:	fd842783          	lw	a5,-40(s0)
    2ec0:	c385                	beqz	a5,2ee0 <GPIO_PinRemapConfig+0x1aa>
    2ec2:	fdc42783          	lw	a5,-36(s0)
    2ec6:	83d5                	srli	a5,a5,0x15
    2ec8:	3ff7f793          	andi	a5,a5,1023
    2ecc:	0792                	slli	a5,a5,0x4
    2ece:	fe842703          	lw	a4,-24(s0)
    2ed2:	00f717b3          	sll	a5,a4,a5
    2ed6:	fec42703          	lw	a4,-20(s0)
    2eda:	8fd9                	or	a5,a5,a4
    2edc:	fef42623          	sw	a5,-20(s0)
    2ee0:	fdc42783          	lw	a5,-36(s0)
    2ee4:	0007d863          	bgez	a5,2ef4 <GPIO_PinRemapConfig+0x1be>
    2ee8:	400107b7          	lui	a5,0x40010
    2eec:	fec42703          	lw	a4,-20(s0)
    2ef0:	cfd8                	sw	a4,28(a5)
    2ef2:	a031                	j	2efe <GPIO_PinRemapConfig+0x1c8>
    2ef4:	400107b7          	lui	a5,0x40010
    2ef8:	fec42703          	lw	a4,-20(s0)
    2efc:	c3d8                	sw	a4,4(a5)
    2efe:	0001                	nop
    2f00:	5432                	lw	s0,44(sp)
    2f02:	6145                	addi	sp,sp,48
    2f04:	8082                	ret

00002f06 <GPIO_EXTILineConfig>:
    2f06:	7179                	addi	sp,sp,-48
    2f08:	d622                	sw	s0,44(sp)
    2f0a:	1800                	addi	s0,sp,48
    2f0c:	87aa                	mv	a5,a0
    2f0e:	872e                	mv	a4,a1
    2f10:	fcf40fa3          	sb	a5,-33(s0)
    2f14:	87ba                	mv	a5,a4
    2f16:	fcf40f23          	sb	a5,-34(s0)
    2f1a:	fe042623          	sw	zero,-20(s0)
    2f1e:	fde44783          	lbu	a5,-34(s0)
    2f22:	8b8d                	andi	a5,a5,3
    2f24:	078a                	slli	a5,a5,0x2
    2f26:	473d                	li	a4,15
    2f28:	00f717b3          	sll	a5,a4,a5
    2f2c:	fef42623          	sw	a5,-20(s0)
    2f30:	40010737          	lui	a4,0x40010
    2f34:	fde44783          	lbu	a5,-34(s0)
    2f38:	8389                	srli	a5,a5,0x2
    2f3a:	0ff7f793          	andi	a5,a5,255
    2f3e:	078a                	slli	a5,a5,0x2
    2f40:	97ba                	add	a5,a5,a4
    2f42:	4798                	lw	a4,8(a5)
    2f44:	fec42783          	lw	a5,-20(s0)
    2f48:	fff7c793          	not	a5,a5
    2f4c:	400106b7          	lui	a3,0x40010
    2f50:	fde44603          	lbu	a2,-34(s0)
    2f54:	8209                	srli	a2,a2,0x2
    2f56:	0ff67613          	andi	a2,a2,255
    2f5a:	8f7d                	and	a4,a4,a5
    2f5c:	00261793          	slli	a5,a2,0x2
    2f60:	97b6                	add	a5,a5,a3
    2f62:	c798                	sw	a4,8(a5)
    2f64:	40010737          	lui	a4,0x40010
    2f68:	fde44783          	lbu	a5,-34(s0)
    2f6c:	8389                	srli	a5,a5,0x2
    2f6e:	0ff7f793          	andi	a5,a5,255
    2f72:	078a                	slli	a5,a5,0x2
    2f74:	97ba                	add	a5,a5,a4
    2f76:	4798                	lw	a4,8(a5)
    2f78:	fdf44683          	lbu	a3,-33(s0)
    2f7c:	fde44783          	lbu	a5,-34(s0)
    2f80:	8b8d                	andi	a5,a5,3
    2f82:	078a                	slli	a5,a5,0x2
    2f84:	00f697b3          	sll	a5,a3,a5
    2f88:	400106b7          	lui	a3,0x40010
    2f8c:	fde44603          	lbu	a2,-34(s0)
    2f90:	8209                	srli	a2,a2,0x2
    2f92:	0ff67613          	andi	a2,a2,255
    2f96:	8f5d                	or	a4,a4,a5
    2f98:	00261793          	slli	a5,a2,0x2
    2f9c:	97b6                	add	a5,a5,a3
    2f9e:	c798                	sw	a4,8(a5)
    2fa0:	0001                	nop
    2fa2:	5432                	lw	s0,44(sp)
    2fa4:	6145                	addi	sp,sp,48
    2fa6:	8082                	ret

00002fa8 <NVIC_PriorityGroupConfig>:
    2fa8:	1101                	addi	sp,sp,-32
    2faa:	ce22                	sw	s0,28(sp)
    2fac:	1000                	addi	s0,sp,32
    2fae:	fea42623          	sw	a0,-20(s0)
    2fb2:	fec42703          	lw	a4,-20(s0)
    2fb6:	84e1a623          	sw	a4,-1972(gp) # 2000048c <NVIC_Priority_Group>
    2fba:	0001                	nop
    2fbc:	4472                	lw	s0,28(sp)
    2fbe:	6105                	addi	sp,sp,32
    2fc0:	8082                	ret

00002fc2 <NVIC_Init>:
    2fc2:	7179                	addi	sp,sp,-48
    2fc4:	d622                	sw	s0,44(sp)
    2fc6:	1800                	addi	s0,sp,48
    2fc8:	fca42e23          	sw	a0,-36(s0)
    2fcc:	84c1a703          	lw	a4,-1972(gp) # 2000048c <NVIC_Priority_Group>
    2fd0:	4789                	li	a5,2
    2fd2:	04f71b63          	bne	a4,a5,3028 <NVIC_Init+0x66>
    2fd6:	fdc42783          	lw	a5,-36(s0)
    2fda:	3398                	lbu	a4,1(a5)
    2fdc:	478d                	li	a5,3
    2fde:	04e7e563          	bltu	a5,a4,3028 <NVIC_Init+0x66>
    2fe2:	fdc42783          	lw	a5,-36(s0)
    2fe6:	239c                	lbu	a5,0(a5)
    2fe8:	86be                	mv	a3,a5
    2fea:	fdc42783          	lw	a5,-36(s0)
    2fee:	339c                	lbu	a5,1(a5)
    2ff0:	079a                	slli	a5,a5,0x6
    2ff2:	01879713          	slli	a4,a5,0x18
    2ff6:	8761                	srai	a4,a4,0x18
    2ff8:	fdc42783          	lw	a5,-36(s0)
    2ffc:	23bc                	lbu	a5,2(a5)
    2ffe:	0796                	slli	a5,a5,0x5
    3000:	07e2                	slli	a5,a5,0x18
    3002:	87e1                	srai	a5,a5,0x18
    3004:	8fd9                	or	a5,a5,a4
    3006:	07e2                	slli	a5,a5,0x18
    3008:	87e1                	srai	a5,a5,0x18
    300a:	0ff7f793          	andi	a5,a5,255
    300e:	fed42623          	sw	a3,-20(s0)
    3012:	fef405a3          	sb	a5,-21(s0)
    3016:	e000e737          	lui	a4,0xe000e
    301a:	fec42783          	lw	a5,-20(s0)
    301e:	97ba                	add	a5,a5,a4
    3020:	feb44703          	lbu	a4,-21(s0)
    3024:	40e78023          	sb	a4,1024(a5) # 40010400 <_eusrstack+0x20008400>
    3028:	fdc42783          	lw	a5,-36(s0)
    302c:	43dc                	lw	a5,4(a5)
    302e:	c79d                	beqz	a5,305c <NVIC_Init+0x9a>
    3030:	fdc42783          	lw	a5,-36(s0)
    3034:	239c                	lbu	a5,0(a5)
    3036:	fef42223          	sw	a5,-28(s0)
    303a:	fe442783          	lw	a5,-28(s0)
    303e:	8bfd                	andi	a5,a5,31
    3040:	4705                	li	a4,1
    3042:	00f716b3          	sll	a3,a4,a5
    3046:	e000e737          	lui	a4,0xe000e
    304a:	fe442783          	lw	a5,-28(s0)
    304e:	8395                	srli	a5,a5,0x5
    3050:	04078793          	addi	a5,a5,64
    3054:	078a                	slli	a5,a5,0x2
    3056:	97ba                	add	a5,a5,a4
    3058:	c394                	sw	a3,0(a5)
    305a:	a805                	j	308a <NVIC_Init+0xc8>
    305c:	fdc42783          	lw	a5,-36(s0)
    3060:	239c                	lbu	a5,0(a5)
    3062:	fef42023          	sw	a5,-32(s0)
    3066:	fe042783          	lw	a5,-32(s0)
    306a:	8bfd                	andi	a5,a5,31
    306c:	4705                	li	a4,1
    306e:	00f716b3          	sll	a3,a4,a5
    3072:	e000e737          	lui	a4,0xe000e
    3076:	fe042783          	lw	a5,-32(s0)
    307a:	8395                	srli	a5,a5,0x5
    307c:	06078793          	addi	a5,a5,96
    3080:	078a                	slli	a5,a5,0x2
    3082:	97ba                	add	a5,a5,a4
    3084:	c394                	sw	a3,0(a5)
    3086:	0000100f          	fence.i
    308a:	0001                	nop
    308c:	5432                	lw	s0,44(sp)
    308e:	6145                	addi	sp,sp,48
    3090:	8082                	ret

00003092 <PWR_EnterSTOPMode>:
    3092:	7179                	addi	sp,sp,-48
    3094:	d622                	sw	s0,44(sp)
    3096:	1800                	addi	s0,sp,48
    3098:	fca42e23          	sw	a0,-36(s0)
    309c:	87ae                	mv	a5,a1
    309e:	fcf40da3          	sb	a5,-37(s0)
    30a2:	fe042623          	sw	zero,-20(s0)
    30a6:	400077b7          	lui	a5,0x40007
    30aa:	439c                	lw	a5,0(a5)
    30ac:	fef42623          	sw	a5,-20(s0)
    30b0:	fec42783          	lw	a5,-20(s0)
    30b4:	9bf1                	andi	a5,a5,-4
    30b6:	fef42623          	sw	a5,-20(s0)
    30ba:	fec42703          	lw	a4,-20(s0)
    30be:	fdc42783          	lw	a5,-36(s0)
    30c2:	8fd9                	or	a5,a5,a4
    30c4:	fef42623          	sw	a5,-20(s0)
    30c8:	400077b7          	lui	a5,0x40007
    30cc:	fec42703          	lw	a4,-20(s0)
    30d0:	c398                	sw	a4,0(a5)
    30d2:	e000e737          	lui	a4,0xe000e
    30d6:	6785                	lui	a5,0x1
    30d8:	97ba                	add	a5,a5,a4
    30da:	d107a783          	lw	a5,-752(a5) # d10 <__stack_size+0x510>
    30de:	e000e6b7          	lui	a3,0xe000e
    30e2:	0047e713          	ori	a4,a5,4
    30e6:	6785                	lui	a5,0x1
    30e8:	97b6                	add	a5,a5,a3
    30ea:	d0e7a823          	sw	a4,-752(a5) # d10 <__stack_size+0x510>
    30ee:	fdb44703          	lbu	a4,-37(s0)
    30f2:	4785                	li	a5,1
    30f4:	02f71363          	bne	a4,a5,311a <PWR_EnterSTOPMode+0x88>
    30f8:	e000e737          	lui	a4,0xe000e
    30fc:	6785                	lui	a5,0x1
    30fe:	97ba                	add	a5,a5,a4
    3100:	d107a783          	lw	a5,-752(a5) # d10 <__stack_size+0x510>
    3104:	e000e6b7          	lui	a3,0xe000e
    3108:	ff77f713          	andi	a4,a5,-9
    310c:	6785                	lui	a5,0x1
    310e:	97b6                	add	a5,a5,a3
    3110:	d0e7a823          	sw	a4,-752(a5) # d10 <__stack_size+0x510>
    3114:	10500073          	wfi
    3118:	a851                	j	31ac <PWR_EnterSTOPMode+0x11a>
    311a:	e000e737          	lui	a4,0xe000e
    311e:	6785                	lui	a5,0x1
    3120:	97ba                	add	a5,a5,a4
    3122:	d107a783          	lw	a5,-752(a5) # d10 <__stack_size+0x510>
    3126:	fef42423          	sw	a5,-24(s0)
    312a:	e000e737          	lui	a4,0xe000e
    312e:	6785                	lui	a5,0x1
    3130:	97ba                	add	a5,a5,a4
    3132:	d107a783          	lw	a5,-752(a5) # d10 <__stack_size+0x510>
    3136:	e000e6b7          	lui	a3,0xe000e
    313a:	0287e713          	ori	a4,a5,40
    313e:	6785                	lui	a5,0x1
    3140:	97b6                	add	a5,a5,a3
    3142:	d0e7a823          	sw	a4,-752(a5) # d10 <__stack_size+0x510>
    3146:	e000e737          	lui	a4,0xe000e
    314a:	6785                	lui	a5,0x1
    314c:	97ba                	add	a5,a5,a4
    314e:	d107a783          	lw	a5,-752(a5) # d10 <__stack_size+0x510>
    3152:	fdf7f713          	andi	a4,a5,-33
    3156:	fe842783          	lw	a5,-24(s0)
    315a:	0207f793          	andi	a5,a5,32
    315e:	e000e6b7          	lui	a3,0xe000e
    3162:	8f5d                	or	a4,a4,a5
    3164:	6785                	lui	a5,0x1
    3166:	97b6                	add	a5,a5,a3
    3168:	d0e7a823          	sw	a4,-752(a5) # d10 <__stack_size+0x510>
    316c:	e000e737          	lui	a4,0xe000e
    3170:	6785                	lui	a5,0x1
    3172:	97ba                	add	a5,a5,a4
    3174:	d107a783          	lw	a5,-752(a5) # d10 <__stack_size+0x510>
    3178:	e000e6b7          	lui	a3,0xe000e
    317c:	0087e713          	ori	a4,a5,8
    3180:	6785                	lui	a5,0x1
    3182:	97b6                	add	a5,a5,a3
    3184:	d0e7a823          	sw	a4,-752(a5) # d10 <__stack_size+0x510>
    3188:	10500073          	wfi
    318c:	e000e737          	lui	a4,0xe000e
    3190:	6785                	lui	a5,0x1
    3192:	97ba                	add	a5,a5,a4
    3194:	d107a783          	lw	a5,-752(a5) # d10 <__stack_size+0x510>
    3198:	e000e6b7          	lui	a3,0xe000e
    319c:	0087e713          	ori	a4,a5,8
    31a0:	6785                	lui	a5,0x1
    31a2:	97b6                	add	a5,a5,a3
    31a4:	d0e7a823          	sw	a4,-752(a5) # d10 <__stack_size+0x510>
    31a8:	10500073          	wfi
    31ac:	e000e737          	lui	a4,0xe000e
    31b0:	6785                	lui	a5,0x1
    31b2:	97ba                	add	a5,a5,a4
    31b4:	d107a783          	lw	a5,-752(a5) # d10 <__stack_size+0x510>
    31b8:	e000e6b7          	lui	a3,0xe000e
    31bc:	ffb7f713          	andi	a4,a5,-5
    31c0:	6785                	lui	a5,0x1
    31c2:	97b6                	add	a5,a5,a3
    31c4:	d0e7a823          	sw	a4,-752(a5) # d10 <__stack_size+0x510>
    31c8:	0001                	nop
    31ca:	5432                	lw	s0,44(sp)
    31cc:	6145                	addi	sp,sp,48
    31ce:	8082                	ret

000031d0 <RCC_GetClocksFreq>:
    31d0:	7139                	addi	sp,sp,-64
    31d2:	de22                	sw	s0,60(sp)
    31d4:	0080                	addi	s0,sp,64
    31d6:	fca42623          	sw	a0,-52(s0)
    31da:	fe042223          	sw	zero,-28(s0)
    31de:	fe042623          	sw	zero,-20(s0)
    31e2:	fe042023          	sw	zero,-32(s0)
    31e6:	fc042e23          	sw	zero,-36(s0)
    31ea:	fe0405a3          	sb	zero,-21(s0)
    31ee:	fc040da3          	sb	zero,-37(s0)
    31f2:	400217b7          	lui	a5,0x40021
    31f6:	43dc                	lw	a5,4(a5)
    31f8:	8bb1                	andi	a5,a5,12
    31fa:	fef42223          	sw	a5,-28(s0)
    31fe:	fe442703          	lw	a4,-28(s0)
    3202:	4791                	li	a5,4
    3204:	02f70363          	beq	a4,a5,322a <RCC_GetClocksFreq+0x5a>
    3208:	fe442703          	lw	a4,-28(s0)
    320c:	47a1                	li	a5,8
    320e:	02f70663          	beq	a4,a5,323a <RCC_GetClocksFreq+0x6a>
    3212:	fe442783          	lw	a5,-28(s0)
    3216:	20079d63          	bnez	a5,3430 <RCC_GetClocksFreq+0x260>
    321a:	fcc42783          	lw	a5,-52(s0)
    321e:	007a1737          	lui	a4,0x7a1
    3222:	20070713          	addi	a4,a4,512 # 7a1200 <_data_lma+0x79badc>
    3226:	c398                	sw	a4,0(a5)
    3228:	ac29                	j	3442 <RCC_GetClocksFreq+0x272>
    322a:	fcc42783          	lw	a5,-52(s0)
    322e:	007a1737          	lui	a4,0x7a1
    3232:	20070713          	addi	a4,a4,512 # 7a1200 <_data_lma+0x79badc>
    3236:	c398                	sw	a4,0(a5)
    3238:	a429                	j	3442 <RCC_GetClocksFreq+0x272>
    323a:	400217b7          	lui	a5,0x40021
    323e:	43d8                	lw	a4,4(a5)
    3240:	003c07b7          	lui	a5,0x3c0
    3244:	8ff9                	and	a5,a5,a4
    3246:	fef42623          	sw	a5,-20(s0)
    324a:	400217b7          	lui	a5,0x40021
    324e:	43d8                	lw	a4,4(a5)
    3250:	67c1                	lui	a5,0x10
    3252:	8ff9                	and	a5,a5,a4
    3254:	fef42023          	sw	a5,-32(s0)
    3258:	fec42783          	lw	a5,-20(s0)
    325c:	83c9                	srli	a5,a5,0x12
    325e:	0789                	addi	a5,a5,2
    3260:	fef42623          	sw	a5,-20(s0)
    3264:	1ffff7b7          	lui	a5,0x1ffff
    3268:	70c78793          	addi	a5,a5,1804 # 1ffff70c <_data_lma+0x1fff9fe8>
    326c:	4398                	lw	a4,0(a5)
    326e:	6791                	lui	a5,0x4
    3270:	8ff9                	and	a5,a5,a4
    3272:	eb91                	bnez	a5,3286 <RCC_GetClocksFreq+0xb6>
    3274:	fec42703          	lw	a4,-20(s0)
    3278:	47c5                	li	a5,17
    327a:	04f71963          	bne	a4,a5,32cc <RCC_GetClocksFreq+0xfc>
    327e:	47c9                	li	a5,18
    3280:	fef42623          	sw	a5,-20(s0)
    3284:	a0a1                	j	32cc <RCC_GetClocksFreq+0xfc>
    3286:	fec42703          	lw	a4,-20(s0)
    328a:	4789                	li	a5,2
    328c:	00f71563          	bne	a4,a5,3296 <RCC_GetClocksFreq+0xc6>
    3290:	47c9                	li	a5,18
    3292:	fef42623          	sw	a5,-20(s0)
    3296:	fec42703          	lw	a4,-20(s0)
    329a:	47bd                	li	a5,15
    329c:	00f71863          	bne	a4,a5,32ac <RCC_GetClocksFreq+0xdc>
    32a0:	47b5                	li	a5,13
    32a2:	fef42623          	sw	a5,-20(s0)
    32a6:	4785                	li	a5,1
    32a8:	fef405a3          	sb	a5,-21(s0)
    32ac:	fec42703          	lw	a4,-20(s0)
    32b0:	47c1                	li	a5,16
    32b2:	00f71563          	bne	a4,a5,32bc <RCC_GetClocksFreq+0xec>
    32b6:	47bd                	li	a5,15
    32b8:	fef42623          	sw	a5,-20(s0)
    32bc:	fec42703          	lw	a4,-20(s0)
    32c0:	47c5                	li	a5,17
    32c2:	00f71563          	bne	a4,a5,32cc <RCC_GetClocksFreq+0xfc>
    32c6:	47c1                	li	a5,16
    32c8:	fef42623          	sw	a5,-20(s0)
    32cc:	fe042783          	lw	a5,-32(s0)
    32d0:	e3a1                	bnez	a5,3310 <RCC_GetClocksFreq+0x140>
    32d2:	400247b7          	lui	a5,0x40024
    32d6:	80078793          	addi	a5,a5,-2048 # 40023800 <_eusrstack+0x2001b800>
    32da:	439c                	lw	a5,0(a5)
    32dc:	8bc1                	andi	a5,a5,16
    32de:	cf89                	beqz	a5,32f8 <RCC_GetClocksFreq+0x128>
    32e0:	fec42703          	lw	a4,-20(s0)
    32e4:	007a17b7          	lui	a5,0x7a1
    32e8:	20078793          	addi	a5,a5,512 # 7a1200 <_data_lma+0x79badc>
    32ec:	02f70733          	mul	a4,a4,a5
    32f0:	fcc42783          	lw	a5,-52(s0)
    32f4:	c398                	sw	a4,0(a5)
    32f6:	aa39                	j	3414 <RCC_GetClocksFreq+0x244>
    32f8:	fec42703          	lw	a4,-20(s0)
    32fc:	003d17b7          	lui	a5,0x3d1
    3300:	90078793          	addi	a5,a5,-1792 # 3d0900 <_data_lma+0x3cb1dc>
    3304:	02f70733          	mul	a4,a4,a5
    3308:	fcc42783          	lw	a5,-52(s0)
    330c:	c398                	sw	a4,0(a5)
    330e:	a219                	j	3414 <RCC_GetClocksFreq+0x244>
    3310:	400217b7          	lui	a5,0x40021
    3314:	57d8                	lw	a4,44(a5)
    3316:	67c1                	lui	a5,0x10
    3318:	8ff9                	and	a5,a5,a4
    331a:	c7e9                	beqz	a5,33e4 <RCC_GetClocksFreq+0x214>
    331c:	400217b7          	lui	a5,0x40021
    3320:	57dc                	lw	a5,44(a5)
    3322:	8391                	srli	a5,a5,0x4
    3324:	8bbd                	andi	a5,a5,15
    3326:	0785                	addi	a5,a5,1
    3328:	007a1737          	lui	a4,0x7a1
    332c:	20070713          	addi	a4,a4,512 # 7a1200 <_data_lma+0x79badc>
    3330:	02f75733          	divu	a4,a4,a5
    3334:	fcc42783          	lw	a5,-52(s0)
    3338:	c398                	sw	a4,0(a5)
    333a:	400217b7          	lui	a5,0x40021
    333e:	57dc                	lw	a5,44(a5)
    3340:	83a1                	srli	a5,a5,0x8
    3342:	0ff7f793          	andi	a5,a5,255
    3346:	8bbd                	andi	a5,a5,15
    3348:	fcf40da3          	sb	a5,-37(s0)
    334c:	fdb44783          	lbu	a5,-37(s0)
    3350:	ef89                	bnez	a5,336a <RCC_GetClocksFreq+0x19a>
    3352:	fcc42783          	lw	a5,-52(s0)
    3356:	4398                	lw	a4,0(a5)
    3358:	87ba                	mv	a5,a4
    335a:	078a                	slli	a5,a5,0x2
    335c:	97ba                	add	a5,a5,a4
    335e:	0017d713          	srli	a4,a5,0x1
    3362:	fcc42783          	lw	a5,-52(s0)
    3366:	c398                	sw	a4,0(a5)
    3368:	a085                	j	33c8 <RCC_GetClocksFreq+0x1f8>
    336a:	fdb44703          	lbu	a4,-37(s0)
    336e:	4785                	li	a5,1
    3370:	02f71063          	bne	a4,a5,3390 <RCC_GetClocksFreq+0x1c0>
    3374:	fcc42783          	lw	a5,-52(s0)
    3378:	4398                	lw	a4,0(a5)
    337a:	87ba                	mv	a5,a4
    337c:	0786                	slli	a5,a5,0x1
    337e:	97ba                	add	a5,a5,a4
    3380:	078e                	slli	a5,a5,0x3
    3382:	97ba                	add	a5,a5,a4
    3384:	0017d713          	srli	a4,a5,0x1
    3388:	fcc42783          	lw	a5,-52(s0)
    338c:	c398                	sw	a4,0(a5)
    338e:	a82d                	j	33c8 <RCC_GetClocksFreq+0x1f8>
    3390:	fdb44703          	lbu	a4,-37(s0)
    3394:	47bd                	li	a5,15
    3396:	00f71e63          	bne	a4,a5,33b2 <RCC_GetClocksFreq+0x1e2>
    339a:	fcc42783          	lw	a5,-52(s0)
    339e:	4398                	lw	a4,0(a5)
    33a0:	87ba                	mv	a5,a4
    33a2:	078a                	slli	a5,a5,0x2
    33a4:	97ba                	add	a5,a5,a4
    33a6:	078a                	slli	a5,a5,0x2
    33a8:	873e                	mv	a4,a5
    33aa:	fcc42783          	lw	a5,-52(s0)
    33ae:	c398                	sw	a4,0(a5)
    33b0:	a821                	j	33c8 <RCC_GetClocksFreq+0x1f8>
    33b2:	fcc42783          	lw	a5,-52(s0)
    33b6:	439c                	lw	a5,0(a5)
    33b8:	fdb44703          	lbu	a4,-37(s0)
    33bc:	0709                	addi	a4,a4,2
    33be:	02e78733          	mul	a4,a5,a4
    33c2:	fcc42783          	lw	a5,-52(s0)
    33c6:	c398                	sw	a4,0(a5)
    33c8:	fcc42783          	lw	a5,-52(s0)
    33cc:	4398                	lw	a4,0(a5)
    33ce:	400217b7          	lui	a5,0x40021
    33d2:	57dc                	lw	a5,44(a5)
    33d4:	8bbd                	andi	a5,a5,15
    33d6:	0785                	addi	a5,a5,1
    33d8:	02f75733          	divu	a4,a4,a5
    33dc:	fcc42783          	lw	a5,-52(s0)
    33e0:	c398                	sw	a4,0(a5)
    33e2:	a839                	j	3400 <RCC_GetClocksFreq+0x230>
    33e4:	400217b7          	lui	a5,0x40021
    33e8:	57dc                	lw	a5,44(a5)
    33ea:	8bbd                	andi	a5,a5,15
    33ec:	0785                	addi	a5,a5,1
    33ee:	007a1737          	lui	a4,0x7a1
    33f2:	20070713          	addi	a4,a4,512 # 7a1200 <_data_lma+0x79badc>
    33f6:	02f75733          	divu	a4,a4,a5
    33fa:	fcc42783          	lw	a5,-52(s0)
    33fe:	c398                	sw	a4,0(a5)
    3400:	fcc42783          	lw	a5,-52(s0)
    3404:	4398                	lw	a4,0(a5)
    3406:	fec42783          	lw	a5,-20(s0)
    340a:	02f70733          	mul	a4,a4,a5
    340e:	fcc42783          	lw	a5,-52(s0)
    3412:	c398                	sw	a4,0(a5)
    3414:	feb44703          	lbu	a4,-21(s0)
    3418:	4785                	li	a5,1
    341a:	02f71363          	bne	a4,a5,3440 <RCC_GetClocksFreq+0x270>
    341e:	fcc42783          	lw	a5,-52(s0)
    3422:	439c                	lw	a5,0(a5)
    3424:	0017d713          	srli	a4,a5,0x1
    3428:	fcc42783          	lw	a5,-52(s0)
    342c:	c398                	sw	a4,0(a5)
    342e:	a809                	j	3440 <RCC_GetClocksFreq+0x270>
    3430:	fcc42783          	lw	a5,-52(s0)
    3434:	007a1737          	lui	a4,0x7a1
    3438:	20070713          	addi	a4,a4,512 # 7a1200 <_data_lma+0x79badc>
    343c:	c398                	sw	a4,0(a5)
    343e:	a011                	j	3442 <RCC_GetClocksFreq+0x272>
    3440:	0001                	nop
    3442:	400217b7          	lui	a5,0x40021
    3446:	43dc                	lw	a5,4(a5)
    3448:	0f07f793          	andi	a5,a5,240
    344c:	fef42223          	sw	a5,-28(s0)
    3450:	fe442783          	lw	a5,-28(s0)
    3454:	8391                	srli	a5,a5,0x4
    3456:	fef42223          	sw	a5,-28(s0)
    345a:	200007b7          	lui	a5,0x20000
    345e:	07c78713          	addi	a4,a5,124 # 2000007c <APBAHBPrescTable>
    3462:	fe442783          	lw	a5,-28(s0)
    3466:	97ba                	add	a5,a5,a4
    3468:	239c                	lbu	a5,0(a5)
    346a:	0ff7f793          	andi	a5,a5,255
    346e:	fcf42e23          	sw	a5,-36(s0)
    3472:	fcc42783          	lw	a5,-52(s0)
    3476:	4398                	lw	a4,0(a5)
    3478:	fdc42783          	lw	a5,-36(s0)
    347c:	00f75733          	srl	a4,a4,a5
    3480:	fcc42783          	lw	a5,-52(s0)
    3484:	c3d8                	sw	a4,4(a5)
    3486:	400217b7          	lui	a5,0x40021
    348a:	43dc                	lw	a5,4(a5)
    348c:	7007f793          	andi	a5,a5,1792
    3490:	fef42223          	sw	a5,-28(s0)
    3494:	fe442783          	lw	a5,-28(s0)
    3498:	83a1                	srli	a5,a5,0x8
    349a:	fef42223          	sw	a5,-28(s0)
    349e:	200007b7          	lui	a5,0x20000
    34a2:	07c78713          	addi	a4,a5,124 # 2000007c <APBAHBPrescTable>
    34a6:	fe442783          	lw	a5,-28(s0)
    34aa:	97ba                	add	a5,a5,a4
    34ac:	239c                	lbu	a5,0(a5)
    34ae:	0ff7f793          	andi	a5,a5,255
    34b2:	fcf42e23          	sw	a5,-36(s0)
    34b6:	fcc42783          	lw	a5,-52(s0)
    34ba:	43d8                	lw	a4,4(a5)
    34bc:	fdc42783          	lw	a5,-36(s0)
    34c0:	00f75733          	srl	a4,a4,a5
    34c4:	fcc42783          	lw	a5,-52(s0)
    34c8:	c798                	sw	a4,8(a5)
    34ca:	400217b7          	lui	a5,0x40021
    34ce:	43d8                	lw	a4,4(a5)
    34d0:	6791                	lui	a5,0x4
    34d2:	80078793          	addi	a5,a5,-2048 # 3800 <SPI_Init+0x9e>
    34d6:	8ff9                	and	a5,a5,a4
    34d8:	fef42223          	sw	a5,-28(s0)
    34dc:	fe442783          	lw	a5,-28(s0)
    34e0:	83ad                	srli	a5,a5,0xb
    34e2:	fef42223          	sw	a5,-28(s0)
    34e6:	200007b7          	lui	a5,0x20000
    34ea:	07c78713          	addi	a4,a5,124 # 2000007c <APBAHBPrescTable>
    34ee:	fe442783          	lw	a5,-28(s0)
    34f2:	97ba                	add	a5,a5,a4
    34f4:	239c                	lbu	a5,0(a5)
    34f6:	0ff7f793          	andi	a5,a5,255
    34fa:	fcf42e23          	sw	a5,-36(s0)
    34fe:	fcc42783          	lw	a5,-52(s0)
    3502:	43d8                	lw	a4,4(a5)
    3504:	fdc42783          	lw	a5,-36(s0)
    3508:	00f75733          	srl	a4,a4,a5
    350c:	fcc42783          	lw	a5,-52(s0)
    3510:	c7d8                	sw	a4,12(a5)
    3512:	400217b7          	lui	a5,0x40021
    3516:	43d8                	lw	a4,4(a5)
    3518:	67b1                	lui	a5,0xc
    351a:	8ff9                	and	a5,a5,a4
    351c:	fef42223          	sw	a5,-28(s0)
    3520:	fe442783          	lw	a5,-28(s0)
    3524:	83b9                	srli	a5,a5,0xe
    3526:	fef42223          	sw	a5,-28(s0)
    352a:	200007b7          	lui	a5,0x20000
    352e:	44478713          	addi	a4,a5,1092 # 20000444 <ADCPrescTable>
    3532:	fe442783          	lw	a5,-28(s0)
    3536:	97ba                	add	a5,a5,a4
    3538:	239c                	lbu	a5,0(a5)
    353a:	0ff7f793          	andi	a5,a5,255
    353e:	fcf42e23          	sw	a5,-36(s0)
    3542:	fcc42783          	lw	a5,-52(s0)
    3546:	47d8                	lw	a4,12(a5)
    3548:	fdc42783          	lw	a5,-36(s0)
    354c:	02f75733          	divu	a4,a4,a5
    3550:	fcc42783          	lw	a5,-52(s0)
    3554:	cb98                	sw	a4,16(a5)
    3556:	0001                	nop
    3558:	5472                	lw	s0,60(sp)
    355a:	6121                	addi	sp,sp,64
    355c:	8082                	ret

0000355e <RCC_AHBPeriphClockCmd>:
    355e:	1101                	addi	sp,sp,-32
    3560:	ce22                	sw	s0,28(sp)
    3562:	1000                	addi	s0,sp,32
    3564:	fea42623          	sw	a0,-20(s0)
    3568:	feb42423          	sw	a1,-24(s0)
    356c:	fe842783          	lw	a5,-24(s0)
    3570:	cb99                	beqz	a5,3586 <RCC_AHBPeriphClockCmd+0x28>
    3572:	400217b7          	lui	a5,0x40021
    3576:	4bd4                	lw	a3,20(a5)
    3578:	400217b7          	lui	a5,0x40021
    357c:	fec42703          	lw	a4,-20(s0)
    3580:	8f55                	or	a4,a4,a3
    3582:	cbd8                	sw	a4,20(a5)
    3584:	a821                	j	359c <RCC_AHBPeriphClockCmd+0x3e>
    3586:	400217b7          	lui	a5,0x40021
    358a:	4bd4                	lw	a3,20(a5)
    358c:	fec42783          	lw	a5,-20(s0)
    3590:	fff7c713          	not	a4,a5
    3594:	400217b7          	lui	a5,0x40021
    3598:	8f75                	and	a4,a4,a3
    359a:	cbd8                	sw	a4,20(a5)
    359c:	0001                	nop
    359e:	4472                	lw	s0,28(sp)
    35a0:	6105                	addi	sp,sp,32
    35a2:	8082                	ret

000035a4 <RCC_APB2PeriphClockCmd>:
    35a4:	1101                	addi	sp,sp,-32
    35a6:	ce22                	sw	s0,28(sp)
    35a8:	1000                	addi	s0,sp,32
    35aa:	fea42623          	sw	a0,-20(s0)
    35ae:	feb42423          	sw	a1,-24(s0)
    35b2:	fe842783          	lw	a5,-24(s0)
    35b6:	cb99                	beqz	a5,35cc <RCC_APB2PeriphClockCmd+0x28>
    35b8:	400217b7          	lui	a5,0x40021
    35bc:	4f94                	lw	a3,24(a5)
    35be:	400217b7          	lui	a5,0x40021
    35c2:	fec42703          	lw	a4,-20(s0)
    35c6:	8f55                	or	a4,a4,a3
    35c8:	cf98                	sw	a4,24(a5)
    35ca:	a821                	j	35e2 <RCC_APB2PeriphClockCmd+0x3e>
    35cc:	400217b7          	lui	a5,0x40021
    35d0:	4f94                	lw	a3,24(a5)
    35d2:	fec42783          	lw	a5,-20(s0)
    35d6:	fff7c713          	not	a4,a5
    35da:	400217b7          	lui	a5,0x40021
    35de:	8f75                	and	a4,a4,a3
    35e0:	cf98                	sw	a4,24(a5)
    35e2:	0001                	nop
    35e4:	4472                	lw	s0,28(sp)
    35e6:	6105                	addi	sp,sp,32
    35e8:	8082                	ret

000035ea <RCC_APB1PeriphClockCmd>:
    35ea:	1101                	addi	sp,sp,-32
    35ec:	ce22                	sw	s0,28(sp)
    35ee:	1000                	addi	s0,sp,32
    35f0:	fea42623          	sw	a0,-20(s0)
    35f4:	feb42423          	sw	a1,-24(s0)
    35f8:	fe842783          	lw	a5,-24(s0)
    35fc:	cb99                	beqz	a5,3612 <RCC_APB1PeriphClockCmd+0x28>
    35fe:	400217b7          	lui	a5,0x40021
    3602:	4fd4                	lw	a3,28(a5)
    3604:	400217b7          	lui	a5,0x40021
    3608:	fec42703          	lw	a4,-20(s0)
    360c:	8f55                	or	a4,a4,a3
    360e:	cfd8                	sw	a4,28(a5)
    3610:	a821                	j	3628 <RCC_APB1PeriphClockCmd+0x3e>
    3612:	400217b7          	lui	a5,0x40021
    3616:	4fd4                	lw	a3,28(a5)
    3618:	fec42783          	lw	a5,-20(s0)
    361c:	fff7c713          	not	a4,a5
    3620:	400217b7          	lui	a5,0x40021
    3624:	8f75                	and	a4,a4,a3
    3626:	cfd8                	sw	a4,28(a5)
    3628:	0001                	nop
    362a:	4472                	lw	s0,28(sp)
    362c:	6105                	addi	sp,sp,32
    362e:	8082                	ret

00003630 <RCC_USBHSConfig>:
    3630:	1101                	addi	sp,sp,-32
    3632:	ce22                	sw	s0,28(sp)
    3634:	1000                	addi	s0,sp,32
    3636:	fea42623          	sw	a0,-20(s0)
    363a:	400217b7          	lui	a5,0x40021
    363e:	57d4                	lw	a3,44(a5)
    3640:	400217b7          	lui	a5,0x40021
    3644:	f9000737          	lui	a4,0xf9000
    3648:	177d                	addi	a4,a4,-1
    364a:	8f75                	and	a4,a4,a3
    364c:	d7d8                	sw	a4,44(a5)
    364e:	400217b7          	lui	a5,0x40021
    3652:	57d4                	lw	a3,44(a5)
    3654:	fec42783          	lw	a5,-20(s0)
    3658:	01879713          	slli	a4,a5,0x18
    365c:	400217b7          	lui	a5,0x40021
    3660:	8f55                	or	a4,a4,a3
    3662:	d7d8                	sw	a4,44(a5)
    3664:	0001                	nop
    3666:	4472                	lw	s0,28(sp)
    3668:	6105                	addi	sp,sp,32
    366a:	8082                	ret

0000366c <RCC_USBHSPLLCLKConfig>:
    366c:	1101                	addi	sp,sp,-32
    366e:	ce22                	sw	s0,28(sp)
    3670:	1000                	addi	s0,sp,32
    3672:	fea42623          	sw	a0,-20(s0)
    3676:	400217b7          	lui	a5,0x40021
    367a:	57d4                	lw	a3,44(a5)
    367c:	400217b7          	lui	a5,0x40021
    3680:	f8000737          	lui	a4,0xf8000
    3684:	177d                	addi	a4,a4,-1
    3686:	8f75                	and	a4,a4,a3
    3688:	d7d8                	sw	a4,44(a5)
    368a:	400217b7          	lui	a5,0x40021
    368e:	57d4                	lw	a3,44(a5)
    3690:	fec42783          	lw	a5,-20(s0)
    3694:	01b79713          	slli	a4,a5,0x1b
    3698:	400217b7          	lui	a5,0x40021
    369c:	8f55                	or	a4,a4,a3
    369e:	d7d8                	sw	a4,44(a5)
    36a0:	0001                	nop
    36a2:	4472                	lw	s0,28(sp)
    36a4:	6105                	addi	sp,sp,32
    36a6:	8082                	ret

000036a8 <RCC_USBHSPLLCKREFCLKConfig>:
    36a8:	1101                	addi	sp,sp,-32
    36aa:	ce22                	sw	s0,28(sp)
    36ac:	1000                	addi	s0,sp,32
    36ae:	fea42623          	sw	a0,-20(s0)
    36b2:	400217b7          	lui	a5,0x40021
    36b6:	57d4                	lw	a3,44(a5)
    36b8:	400217b7          	lui	a5,0x40021
    36bc:	d0000737          	lui	a4,0xd0000
    36c0:	177d                	addi	a4,a4,-1
    36c2:	8f75                	and	a4,a4,a3
    36c4:	d7d8                	sw	a4,44(a5)
    36c6:	400217b7          	lui	a5,0x40021
    36ca:	57d4                	lw	a3,44(a5)
    36cc:	fec42783          	lw	a5,-20(s0)
    36d0:	01c79713          	slli	a4,a5,0x1c
    36d4:	400217b7          	lui	a5,0x40021
    36d8:	8f55                	or	a4,a4,a3
    36da:	d7d8                	sw	a4,44(a5)
    36dc:	0001                	nop
    36de:	4472                	lw	s0,28(sp)
    36e0:	6105                	addi	sp,sp,32
    36e2:	8082                	ret

000036e4 <RCC_USBHSPHYPLLALIVEcmd>:
    36e4:	1101                	addi	sp,sp,-32
    36e6:	ce22                	sw	s0,28(sp)
    36e8:	1000                	addi	s0,sp,32
    36ea:	fea42623          	sw	a0,-20(s0)
    36ee:	fec42783          	lw	a5,-20(s0)
    36f2:	cb99                	beqz	a5,3708 <RCC_USBHSPHYPLLALIVEcmd+0x24>
    36f4:	400217b7          	lui	a5,0x40021
    36f8:	57d4                	lw	a3,44(a5)
    36fa:	400217b7          	lui	a5,0x40021
    36fe:	40000737          	lui	a4,0x40000
    3702:	8f55                	or	a4,a4,a3
    3704:	d7d8                	sw	a4,44(a5)
    3706:	a819                	j	371c <RCC_USBHSPHYPLLALIVEcmd+0x38>
    3708:	400217b7          	lui	a5,0x40021
    370c:	57d4                	lw	a3,44(a5)
    370e:	400217b7          	lui	a5,0x40021
    3712:	c0000737          	lui	a4,0xc0000
    3716:	177d                	addi	a4,a4,-1
    3718:	8f75                	and	a4,a4,a3
    371a:	d7d8                	sw	a4,44(a5)
    371c:	0001                	nop
    371e:	4472                	lw	s0,28(sp)
    3720:	6105                	addi	sp,sp,32
    3722:	8082                	ret

00003724 <RCC_USBCLK48MConfig>:
    3724:	1101                	addi	sp,sp,-32
    3726:	ce22                	sw	s0,28(sp)
    3728:	1000                	addi	s0,sp,32
    372a:	fea42623          	sw	a0,-20(s0)
    372e:	400217b7          	lui	a5,0x40021
    3732:	57d4                	lw	a3,44(a5)
    3734:	400217b7          	lui	a5,0x40021
    3738:	80000737          	lui	a4,0x80000
    373c:	fff74713          	not	a4,a4
    3740:	8f75                	and	a4,a4,a3
    3742:	d7d8                	sw	a4,44(a5)
    3744:	400217b7          	lui	a5,0x40021
    3748:	57d4                	lw	a3,44(a5)
    374a:	fec42783          	lw	a5,-20(s0)
    374e:	01f79713          	slli	a4,a5,0x1f
    3752:	400217b7          	lui	a5,0x40021
    3756:	8f55                	or	a4,a4,a3
    3758:	d7d8                	sw	a4,44(a5)
    375a:	0001                	nop
    375c:	4472                	lw	s0,28(sp)
    375e:	6105                	addi	sp,sp,32
    3760:	8082                	ret

00003762 <SPI_Init>:
    3762:	7179                	addi	sp,sp,-48
    3764:	d622                	sw	s0,44(sp)
    3766:	1800                	addi	s0,sp,48
    3768:	fca42e23          	sw	a0,-36(s0)
    376c:	fcb42c23          	sw	a1,-40(s0)
    3770:	fe041723          	sh	zero,-18(s0)
    3774:	fdc42783          	lw	a5,-36(s0)
    3778:	239e                	lhu	a5,0(a5)
    377a:	fef41723          	sh	a5,-18(s0)
    377e:	fee45703          	lhu	a4,-18(s0)
    3782:	678d                	lui	a5,0x3
    3784:	04078793          	addi	a5,a5,64 # 3040 <NVIC_Init+0x7e>
    3788:	8ff9                	and	a5,a5,a4
    378a:	fef41723          	sh	a5,-18(s0)
    378e:	fd842783          	lw	a5,-40(s0)
    3792:	239a                	lhu	a4,0(a5)
    3794:	fd842783          	lw	a5,-40(s0)
    3798:	23be                	lhu	a5,2(a5)
    379a:	8fd9                	or	a5,a5,a4
    379c:	01079713          	slli	a4,a5,0x10
    37a0:	8341                	srli	a4,a4,0x10
    37a2:	fd842783          	lw	a5,-40(s0)
    37a6:	23de                	lhu	a5,4(a5)
    37a8:	8fd9                	or	a5,a5,a4
    37aa:	01079713          	slli	a4,a5,0x10
    37ae:	8341                	srli	a4,a4,0x10
    37b0:	fd842783          	lw	a5,-40(s0)
    37b4:	23fe                	lhu	a5,6(a5)
    37b6:	8fd9                	or	a5,a5,a4
    37b8:	01079713          	slli	a4,a5,0x10
    37bc:	8341                	srli	a4,a4,0x10
    37be:	fd842783          	lw	a5,-40(s0)
    37c2:	279e                	lhu	a5,8(a5)
    37c4:	8fd9                	or	a5,a5,a4
    37c6:	01079713          	slli	a4,a5,0x10
    37ca:	8341                	srli	a4,a4,0x10
    37cc:	fd842783          	lw	a5,-40(s0)
    37d0:	27be                	lhu	a5,10(a5)
    37d2:	8fd9                	or	a5,a5,a4
    37d4:	01079713          	slli	a4,a5,0x10
    37d8:	8341                	srli	a4,a4,0x10
    37da:	fd842783          	lw	a5,-40(s0)
    37de:	27de                	lhu	a5,12(a5)
    37e0:	8fd9                	or	a5,a5,a4
    37e2:	01079713          	slli	a4,a5,0x10
    37e6:	8341                	srli	a4,a4,0x10
    37e8:	fd842783          	lw	a5,-40(s0)
    37ec:	27fe                	lhu	a5,14(a5)
    37ee:	8fd9                	or	a5,a5,a4
    37f0:	01079713          	slli	a4,a5,0x10
    37f4:	8341                	srli	a4,a4,0x10
    37f6:	fee45783          	lhu	a5,-18(s0)
    37fa:	8fd9                	or	a5,a5,a4
    37fc:	fef41723          	sh	a5,-18(s0)
    3800:	fdc42783          	lw	a5,-36(s0)
    3804:	fee45703          	lhu	a4,-18(s0)
    3808:	a39a                	sh	a4,0(a5)
    380a:	fdc42783          	lw	a5,-36(s0)
    380e:	2fde                	lhu	a5,28(a5)
    3810:	01079713          	slli	a4,a5,0x10
    3814:	8341                	srli	a4,a4,0x10
    3816:	77fd                	lui	a5,0xfffff
    3818:	7ff78793          	addi	a5,a5,2047 # fffff7ff <_eusrstack+0xdfff77ff>
    381c:	8ff9                	and	a5,a5,a4
    381e:	01079713          	slli	a4,a5,0x10
    3822:	8341                	srli	a4,a4,0x10
    3824:	fdc42783          	lw	a5,-36(s0)
    3828:	afda                	sh	a4,28(a5)
    382a:	fd842783          	lw	a5,-40(s0)
    382e:	2b9a                	lhu	a4,16(a5)
    3830:	fdc42783          	lw	a5,-36(s0)
    3834:	ab9a                	sh	a4,16(a5)
    3836:	0001                	nop
    3838:	5432                	lw	s0,44(sp)
    383a:	6145                	addi	sp,sp,48
    383c:	8082                	ret

0000383e <SPI_Cmd>:
    383e:	1101                	addi	sp,sp,-32
    3840:	ce22                	sw	s0,28(sp)
    3842:	1000                	addi	s0,sp,32
    3844:	fea42623          	sw	a0,-20(s0)
    3848:	feb42423          	sw	a1,-24(s0)
    384c:	fe842783          	lw	a5,-24(s0)
    3850:	cf99                	beqz	a5,386e <SPI_Cmd+0x30>
    3852:	fec42783          	lw	a5,-20(s0)
    3856:	239e                	lhu	a5,0(a5)
    3858:	07c2                	slli	a5,a5,0x10
    385a:	83c1                	srli	a5,a5,0x10
    385c:	0407e793          	ori	a5,a5,64
    3860:	01079713          	slli	a4,a5,0x10
    3864:	8341                	srli	a4,a4,0x10
    3866:	fec42783          	lw	a5,-20(s0)
    386a:	a39a                	sh	a4,0(a5)
    386c:	a831                	j	3888 <SPI_Cmd+0x4a>
    386e:	fec42783          	lw	a5,-20(s0)
    3872:	239e                	lhu	a5,0(a5)
    3874:	07c2                	slli	a5,a5,0x10
    3876:	83c1                	srli	a5,a5,0x10
    3878:	fbf7f793          	andi	a5,a5,-65
    387c:	01079713          	slli	a4,a5,0x10
    3880:	8341                	srli	a4,a4,0x10
    3882:	fec42783          	lw	a5,-20(s0)
    3886:	a39a                	sh	a4,0(a5)
    3888:	0001                	nop
    388a:	4472                	lw	s0,28(sp)
    388c:	6105                	addi	sp,sp,32
    388e:	8082                	ret

00003890 <SPI_I2S_DMACmd>:
    3890:	1101                	addi	sp,sp,-32
    3892:	ce22                	sw	s0,28(sp)
    3894:	1000                	addi	s0,sp,32
    3896:	fea42623          	sw	a0,-20(s0)
    389a:	87ae                	mv	a5,a1
    389c:	fec42223          	sw	a2,-28(s0)
    38a0:	fef41523          	sh	a5,-22(s0)
    38a4:	fe442783          	lw	a5,-28(s0)
    38a8:	c38d                	beqz	a5,38ca <SPI_I2S_DMACmd+0x3a>
    38aa:	fec42783          	lw	a5,-20(s0)
    38ae:	23de                	lhu	a5,4(a5)
    38b0:	01079713          	slli	a4,a5,0x10
    38b4:	8341                	srli	a4,a4,0x10
    38b6:	fea45783          	lhu	a5,-22(s0)
    38ba:	8fd9                	or	a5,a5,a4
    38bc:	01079713          	slli	a4,a5,0x10
    38c0:	8341                	srli	a4,a4,0x10
    38c2:	fec42783          	lw	a5,-20(s0)
    38c6:	a3da                	sh	a4,4(a5)
    38c8:	a025                	j	38f0 <SPI_I2S_DMACmd+0x60>
    38ca:	fec42783          	lw	a5,-20(s0)
    38ce:	23de                	lhu	a5,4(a5)
    38d0:	01079713          	slli	a4,a5,0x10
    38d4:	8341                	srli	a4,a4,0x10
    38d6:	fea45783          	lhu	a5,-22(s0)
    38da:	fff7c793          	not	a5,a5
    38de:	07c2                	slli	a5,a5,0x10
    38e0:	83c1                	srli	a5,a5,0x10
    38e2:	8ff9                	and	a5,a5,a4
    38e4:	01079713          	slli	a4,a5,0x10
    38e8:	8341                	srli	a4,a4,0x10
    38ea:	fec42783          	lw	a5,-20(s0)
    38ee:	a3da                	sh	a4,4(a5)
    38f0:	0001                	nop
    38f2:	4472                	lw	s0,28(sp)
    38f4:	6105                	addi	sp,sp,32
    38f6:	8082                	ret

000038f8 <SPI_I2S_SendData>:
    38f8:	1101                	addi	sp,sp,-32
    38fa:	ce22                	sw	s0,28(sp)
    38fc:	1000                	addi	s0,sp,32
    38fe:	fea42623          	sw	a0,-20(s0)
    3902:	87ae                	mv	a5,a1
    3904:	fef41523          	sh	a5,-22(s0)
    3908:	fec42783          	lw	a5,-20(s0)
    390c:	fea45703          	lhu	a4,-22(s0)
    3910:	a7da                	sh	a4,12(a5)
    3912:	0001                	nop
    3914:	4472                	lw	s0,28(sp)
    3916:	6105                	addi	sp,sp,32
    3918:	8082                	ret

0000391a <SPI_I2S_ReceiveData>:
    391a:	1101                	addi	sp,sp,-32
    391c:	ce22                	sw	s0,28(sp)
    391e:	1000                	addi	s0,sp,32
    3920:	fea42623          	sw	a0,-20(s0)
    3924:	fec42783          	lw	a5,-20(s0)
    3928:	27de                	lhu	a5,12(a5)
    392a:	07c2                	slli	a5,a5,0x10
    392c:	83c1                	srli	a5,a5,0x10
    392e:	853e                	mv	a0,a5
    3930:	4472                	lw	s0,28(sp)
    3932:	6105                	addi	sp,sp,32
    3934:	8082                	ret

00003936 <SPI_I2S_GetFlagStatus>:
    3936:	7179                	addi	sp,sp,-48
    3938:	d622                	sw	s0,44(sp)
    393a:	1800                	addi	s0,sp,48
    393c:	fca42e23          	sw	a0,-36(s0)
    3940:	87ae                	mv	a5,a1
    3942:	fcf41d23          	sh	a5,-38(s0)
    3946:	fe042623          	sw	zero,-20(s0)
    394a:	fdc42783          	lw	a5,-36(s0)
    394e:	279e                	lhu	a5,8(a5)
    3950:	01079713          	slli	a4,a5,0x10
    3954:	8341                	srli	a4,a4,0x10
    3956:	fda45783          	lhu	a5,-38(s0)
    395a:	8ff9                	and	a5,a5,a4
    395c:	07c2                	slli	a5,a5,0x10
    395e:	83c1                	srli	a5,a5,0x10
    3960:	c789                	beqz	a5,396a <SPI_I2S_GetFlagStatus+0x34>
    3962:	4785                	li	a5,1
    3964:	fef42623          	sw	a5,-20(s0)
    3968:	a019                	j	396e <SPI_I2S_GetFlagStatus+0x38>
    396a:	fe042623          	sw	zero,-20(s0)
    396e:	fec42783          	lw	a5,-20(s0)
    3972:	853e                	mv	a0,a5
    3974:	5432                	lw	s0,44(sp)
    3976:	6145                	addi	sp,sp,48
    3978:	8082                	ret

0000397a <TIM_TimeBaseInit>:
    397a:	7179                	addi	sp,sp,-48
    397c:	d622                	sw	s0,44(sp)
    397e:	1800                	addi	s0,sp,48
    3980:	fca42e23          	sw	a0,-36(s0)
    3984:	fcb42c23          	sw	a1,-40(s0)
    3988:	fe041723          	sh	zero,-18(s0)
    398c:	fdc42783          	lw	a5,-36(s0)
    3990:	239e                	lhu	a5,0(a5)
    3992:	fef41723          	sh	a5,-18(s0)
    3996:	fdc42703          	lw	a4,-36(s0)
    399a:	400137b7          	lui	a5,0x40013
    399e:	c0078793          	addi	a5,a5,-1024 # 40012c00 <_eusrstack+0x2000ac00>
    39a2:	06f70663          	beq	a4,a5,3a0e <TIM_TimeBaseInit+0x94>
    39a6:	fdc42703          	lw	a4,-36(s0)
    39aa:	400007b7          	lui	a5,0x40000
    39ae:	06f70063          	beq	a4,a5,3a0e <TIM_TimeBaseInit+0x94>
    39b2:	fdc42703          	lw	a4,-36(s0)
    39b6:	400007b7          	lui	a5,0x40000
    39ba:	40078793          	addi	a5,a5,1024 # 40000400 <_eusrstack+0x1fff8400>
    39be:	04f70863          	beq	a4,a5,3a0e <TIM_TimeBaseInit+0x94>
    39c2:	fdc42703          	lw	a4,-36(s0)
    39c6:	400017b7          	lui	a5,0x40001
    39ca:	80078793          	addi	a5,a5,-2048 # 40000800 <_eusrstack+0x1fff8800>
    39ce:	04f70063          	beq	a4,a5,3a0e <TIM_TimeBaseInit+0x94>
    39d2:	fdc42703          	lw	a4,-36(s0)
    39d6:	400017b7          	lui	a5,0x40001
    39da:	c0078793          	addi	a5,a5,-1024 # 40000c00 <_eusrstack+0x1fff8c00>
    39de:	02f70863          	beq	a4,a5,3a0e <TIM_TimeBaseInit+0x94>
    39e2:	fdc42703          	lw	a4,-36(s0)
    39e6:	400137b7          	lui	a5,0x40013
    39ea:	40078793          	addi	a5,a5,1024 # 40013400 <_eusrstack+0x2000b400>
    39ee:	02f70063          	beq	a4,a5,3a0e <TIM_TimeBaseInit+0x94>
    39f2:	fdc42703          	lw	a4,-36(s0)
    39f6:	400157b7          	lui	a5,0x40015
    39fa:	c0078793          	addi	a5,a5,-1024 # 40014c00 <_eusrstack+0x2000cc00>
    39fe:	00f70863          	beq	a4,a5,3a0e <TIM_TimeBaseInit+0x94>
    3a02:	fdc42703          	lw	a4,-36(s0)
    3a06:	400157b7          	lui	a5,0x40015
    3a0a:	02f71063          	bne	a4,a5,3a2a <TIM_TimeBaseInit+0xb0>
    3a0e:	fee45783          	lhu	a5,-18(s0)
    3a12:	f8f7f793          	andi	a5,a5,-113
    3a16:	fef41723          	sh	a5,-18(s0)
    3a1a:	fd842783          	lw	a5,-40(s0)
    3a1e:	23ba                	lhu	a4,2(a5)
    3a20:	fee45783          	lhu	a5,-18(s0)
    3a24:	8fd9                	or	a5,a5,a4
    3a26:	fef41723          	sh	a5,-18(s0)
    3a2a:	fdc42703          	lw	a4,-36(s0)
    3a2e:	400017b7          	lui	a5,0x40001
    3a32:	02f70863          	beq	a4,a5,3a62 <TIM_TimeBaseInit+0xe8>
    3a36:	fdc42703          	lw	a4,-36(s0)
    3a3a:	400017b7          	lui	a5,0x40001
    3a3e:	40078793          	addi	a5,a5,1024 # 40001400 <_eusrstack+0x1fff9400>
    3a42:	02f70063          	beq	a4,a5,3a62 <TIM_TimeBaseInit+0xe8>
    3a46:	fee45783          	lhu	a5,-18(s0)
    3a4a:	cff7f793          	andi	a5,a5,-769
    3a4e:	fef41723          	sh	a5,-18(s0)
    3a52:	fd842783          	lw	a5,-40(s0)
    3a56:	23fa                	lhu	a4,6(a5)
    3a58:	fee45783          	lhu	a5,-18(s0)
    3a5c:	8fd9                	or	a5,a5,a4
    3a5e:	fef41723          	sh	a5,-18(s0)
    3a62:	fdc42783          	lw	a5,-36(s0)
    3a66:	fee45703          	lhu	a4,-18(s0)
    3a6a:	a39a                	sh	a4,0(a5)
    3a6c:	fd842783          	lw	a5,-40(s0)
    3a70:	23da                	lhu	a4,4(a5)
    3a72:	fdc42783          	lw	a5,-36(s0)
    3a76:	b7da                	sh	a4,44(a5)
    3a78:	fd842783          	lw	a5,-40(s0)
    3a7c:	239a                	lhu	a4,0(a5)
    3a7e:	fdc42783          	lw	a5,-36(s0)
    3a82:	b79a                	sh	a4,40(a5)
    3a84:	fdc42703          	lw	a4,-36(s0)
    3a88:	400137b7          	lui	a5,0x40013
    3a8c:	c0078793          	addi	a5,a5,-1024 # 40012c00 <_eusrstack+0x2000ac00>
    3a90:	02f70863          	beq	a4,a5,3ac0 <TIM_TimeBaseInit+0x146>
    3a94:	fdc42703          	lw	a4,-36(s0)
    3a98:	400137b7          	lui	a5,0x40013
    3a9c:	40078793          	addi	a5,a5,1024 # 40013400 <_eusrstack+0x2000b400>
    3aa0:	02f70063          	beq	a4,a5,3ac0 <TIM_TimeBaseInit+0x146>
    3aa4:	fdc42703          	lw	a4,-36(s0)
    3aa8:	400157b7          	lui	a5,0x40015
    3aac:	c0078793          	addi	a5,a5,-1024 # 40014c00 <_eusrstack+0x2000cc00>
    3ab0:	00f70863          	beq	a4,a5,3ac0 <TIM_TimeBaseInit+0x146>
    3ab4:	fdc42703          	lw	a4,-36(s0)
    3ab8:	400157b7          	lui	a5,0x40015
    3abc:	00f71b63          	bne	a4,a5,3ad2 <TIM_TimeBaseInit+0x158>
    3ac0:	fd842783          	lw	a5,-40(s0)
    3ac4:	279c                	lbu	a5,8(a5)
    3ac6:	01079713          	slli	a4,a5,0x10
    3aca:	8341                	srli	a4,a4,0x10
    3acc:	fdc42783          	lw	a5,-36(s0)
    3ad0:	bb9a                	sh	a4,48(a5)
    3ad2:	fdc42783          	lw	a5,-36(s0)
    3ad6:	4705                	li	a4,1
    3ad8:	abda                	sh	a4,20(a5)
    3ada:	0001                	nop
    3adc:	5432                	lw	s0,44(sp)
    3ade:	6145                	addi	sp,sp,48
    3ae0:	8082                	ret

00003ae2 <TIM_OC3Init>:
    3ae2:	7179                	addi	sp,sp,-48
    3ae4:	d622                	sw	s0,44(sp)
    3ae6:	1800                	addi	s0,sp,48
    3ae8:	fca42e23          	sw	a0,-36(s0)
    3aec:	fcb42c23          	sw	a1,-40(s0)
    3af0:	fe041523          	sh	zero,-22(s0)
    3af4:	fe041723          	sh	zero,-18(s0)
    3af8:	fe041623          	sh	zero,-20(s0)
    3afc:	fdc42783          	lw	a5,-36(s0)
    3b00:	339e                	lhu	a5,32(a5)
    3b02:	07c2                	slli	a5,a5,0x10
    3b04:	83c1                	srli	a5,a5,0x10
    3b06:	eff7f793          	andi	a5,a5,-257
    3b0a:	01079713          	slli	a4,a5,0x10
    3b0e:	8341                	srli	a4,a4,0x10
    3b10:	fdc42783          	lw	a5,-36(s0)
    3b14:	b39a                	sh	a4,32(a5)
    3b16:	fdc42783          	lw	a5,-36(s0)
    3b1a:	339e                	lhu	a5,32(a5)
    3b1c:	fef41723          	sh	a5,-18(s0)
    3b20:	fdc42783          	lw	a5,-36(s0)
    3b24:	23de                	lhu	a5,4(a5)
    3b26:	fef41623          	sh	a5,-20(s0)
    3b2a:	fdc42783          	lw	a5,-36(s0)
    3b2e:	2fde                	lhu	a5,28(a5)
    3b30:	fef41523          	sh	a5,-22(s0)
    3b34:	fea45783          	lhu	a5,-22(s0)
    3b38:	f8f7f793          	andi	a5,a5,-113
    3b3c:	fef41523          	sh	a5,-22(s0)
    3b40:	fea45783          	lhu	a5,-22(s0)
    3b44:	9bf1                	andi	a5,a5,-4
    3b46:	fef41523          	sh	a5,-22(s0)
    3b4a:	fd842783          	lw	a5,-40(s0)
    3b4e:	239a                	lhu	a4,0(a5)
    3b50:	fea45783          	lhu	a5,-22(s0)
    3b54:	8fd9                	or	a5,a5,a4
    3b56:	fef41523          	sh	a5,-22(s0)
    3b5a:	fee45783          	lhu	a5,-18(s0)
    3b5e:	dff7f793          	andi	a5,a5,-513
    3b62:	fef41723          	sh	a5,-18(s0)
    3b66:	fd842783          	lw	a5,-40(s0)
    3b6a:	279e                	lhu	a5,8(a5)
    3b6c:	07a2                	slli	a5,a5,0x8
    3b6e:	01079713          	slli	a4,a5,0x10
    3b72:	8341                	srli	a4,a4,0x10
    3b74:	fee45783          	lhu	a5,-18(s0)
    3b78:	8fd9                	or	a5,a5,a4
    3b7a:	fef41723          	sh	a5,-18(s0)
    3b7e:	fd842783          	lw	a5,-40(s0)
    3b82:	23be                	lhu	a5,2(a5)
    3b84:	07a2                	slli	a5,a5,0x8
    3b86:	01079713          	slli	a4,a5,0x10
    3b8a:	8341                	srli	a4,a4,0x10
    3b8c:	fee45783          	lhu	a5,-18(s0)
    3b90:	8fd9                	or	a5,a5,a4
    3b92:	fef41723          	sh	a5,-18(s0)
    3b96:	fdc42703          	lw	a4,-36(s0)
    3b9a:	400137b7          	lui	a5,0x40013
    3b9e:	c0078793          	addi	a5,a5,-1024 # 40012c00 <_eusrstack+0x2000ac00>
    3ba2:	02f70863          	beq	a4,a5,3bd2 <TIM_OC3Init+0xf0>
    3ba6:	fdc42703          	lw	a4,-36(s0)
    3baa:	400137b7          	lui	a5,0x40013
    3bae:	40078793          	addi	a5,a5,1024 # 40013400 <_eusrstack+0x2000b400>
    3bb2:	02f70063          	beq	a4,a5,3bd2 <TIM_OC3Init+0xf0>
    3bb6:	fdc42703          	lw	a4,-36(s0)
    3bba:	400157b7          	lui	a5,0x40015
    3bbe:	c0078793          	addi	a5,a5,-1024 # 40014c00 <_eusrstack+0x2000cc00>
    3bc2:	00f70863          	beq	a4,a5,3bd2 <TIM_OC3Init+0xf0>
    3bc6:	fdc42703          	lw	a4,-36(s0)
    3bca:	400157b7          	lui	a5,0x40015
    3bce:	08f71e63          	bne	a4,a5,3c6a <TIM_OC3Init+0x188>
    3bd2:	fee45703          	lhu	a4,-18(s0)
    3bd6:	77fd                	lui	a5,0xfffff
    3bd8:	7ff78793          	addi	a5,a5,2047 # fffff7ff <_eusrstack+0xdfff77ff>
    3bdc:	8ff9                	and	a5,a5,a4
    3bde:	fef41723          	sh	a5,-18(s0)
    3be2:	fd842783          	lw	a5,-40(s0)
    3be6:	27be                	lhu	a5,10(a5)
    3be8:	07a2                	slli	a5,a5,0x8
    3bea:	01079713          	slli	a4,a5,0x10
    3bee:	8341                	srli	a4,a4,0x10
    3bf0:	fee45783          	lhu	a5,-18(s0)
    3bf4:	8fd9                	or	a5,a5,a4
    3bf6:	fef41723          	sh	a5,-18(s0)
    3bfa:	fee45783          	lhu	a5,-18(s0)
    3bfe:	bff7f793          	andi	a5,a5,-1025
    3c02:	fef41723          	sh	a5,-18(s0)
    3c06:	fd842783          	lw	a5,-40(s0)
    3c0a:	23de                	lhu	a5,4(a5)
    3c0c:	07a2                	slli	a5,a5,0x8
    3c0e:	01079713          	slli	a4,a5,0x10
    3c12:	8341                	srli	a4,a4,0x10
    3c14:	fee45783          	lhu	a5,-18(s0)
    3c18:	8fd9                	or	a5,a5,a4
    3c1a:	fef41723          	sh	a5,-18(s0)
    3c1e:	fec45703          	lhu	a4,-20(s0)
    3c22:	77fd                	lui	a5,0xfffff
    3c24:	17fd                	addi	a5,a5,-1
    3c26:	8ff9                	and	a5,a5,a4
    3c28:	fef41623          	sh	a5,-20(s0)
    3c2c:	fec45703          	lhu	a4,-20(s0)
    3c30:	77f9                	lui	a5,0xffffe
    3c32:	17fd                	addi	a5,a5,-1
    3c34:	8ff9                	and	a5,a5,a4
    3c36:	fef41623          	sh	a5,-20(s0)
    3c3a:	fd842783          	lw	a5,-40(s0)
    3c3e:	27de                	lhu	a5,12(a5)
    3c40:	0792                	slli	a5,a5,0x4
    3c42:	01079713          	slli	a4,a5,0x10
    3c46:	8341                	srli	a4,a4,0x10
    3c48:	fec45783          	lhu	a5,-20(s0)
    3c4c:	8fd9                	or	a5,a5,a4
    3c4e:	fef41623          	sh	a5,-20(s0)
    3c52:	fd842783          	lw	a5,-40(s0)
    3c56:	27fe                	lhu	a5,14(a5)
    3c58:	0792                	slli	a5,a5,0x4
    3c5a:	01079713          	slli	a4,a5,0x10
    3c5e:	8341                	srli	a4,a4,0x10
    3c60:	fec45783          	lhu	a5,-20(s0)
    3c64:	8fd9                	or	a5,a5,a4
    3c66:	fef41623          	sh	a5,-20(s0)
    3c6a:	fdc42783          	lw	a5,-36(s0)
    3c6e:	fec45703          	lhu	a4,-20(s0)
    3c72:	a3da                	sh	a4,4(a5)
    3c74:	fdc42783          	lw	a5,-36(s0)
    3c78:	fea45703          	lhu	a4,-22(s0)
    3c7c:	afda                	sh	a4,28(a5)
    3c7e:	fd842783          	lw	a5,-40(s0)
    3c82:	23fa                	lhu	a4,6(a5)
    3c84:	fdc42783          	lw	a5,-36(s0)
    3c88:	bfda                	sh	a4,60(a5)
    3c8a:	fdc42783          	lw	a5,-36(s0)
    3c8e:	fee45703          	lhu	a4,-18(s0)
    3c92:	b39a                	sh	a4,32(a5)
    3c94:	0001                	nop
    3c96:	5432                	lw	s0,44(sp)
    3c98:	6145                	addi	sp,sp,48
    3c9a:	8082                	ret

00003c9c <TIM_Cmd>:
    3c9c:	1101                	addi	sp,sp,-32
    3c9e:	ce22                	sw	s0,28(sp)
    3ca0:	1000                	addi	s0,sp,32
    3ca2:	fea42623          	sw	a0,-20(s0)
    3ca6:	feb42423          	sw	a1,-24(s0)
    3caa:	fe842783          	lw	a5,-24(s0)
    3cae:	cf99                	beqz	a5,3ccc <TIM_Cmd+0x30>
    3cb0:	fec42783          	lw	a5,-20(s0)
    3cb4:	239e                	lhu	a5,0(a5)
    3cb6:	07c2                	slli	a5,a5,0x10
    3cb8:	83c1                	srli	a5,a5,0x10
    3cba:	0017e793          	ori	a5,a5,1
    3cbe:	01079713          	slli	a4,a5,0x10
    3cc2:	8341                	srli	a4,a4,0x10
    3cc4:	fec42783          	lw	a5,-20(s0)
    3cc8:	a39a                	sh	a4,0(a5)
    3cca:	a829                	j	3ce4 <TIM_Cmd+0x48>
    3ccc:	fec42783          	lw	a5,-20(s0)
    3cd0:	239e                	lhu	a5,0(a5)
    3cd2:	07c2                	slli	a5,a5,0x10
    3cd4:	83c1                	srli	a5,a5,0x10
    3cd6:	9bf9                	andi	a5,a5,-2
    3cd8:	01079713          	slli	a4,a5,0x10
    3cdc:	8341                	srli	a4,a4,0x10
    3cde:	fec42783          	lw	a5,-20(s0)
    3ce2:	a39a                	sh	a4,0(a5)
    3ce4:	0001                	nop
    3ce6:	4472                	lw	s0,28(sp)
    3ce8:	6105                	addi	sp,sp,32
    3cea:	8082                	ret

00003cec <TIM_CtrlPWMOutputs>:
    3cec:	1101                	addi	sp,sp,-32
    3cee:	ce22                	sw	s0,28(sp)
    3cf0:	1000                	addi	s0,sp,32
    3cf2:	fea42623          	sw	a0,-20(s0)
    3cf6:	feb42423          	sw	a1,-24(s0)
    3cfa:	fe842783          	lw	a5,-24(s0)
    3cfe:	c395                	beqz	a5,3d22 <TIM_CtrlPWMOutputs+0x36>
    3d00:	fec42783          	lw	a5,-20(s0)
    3d04:	0447d783          	lhu	a5,68(a5) # ffffe044 <_eusrstack+0xdfff6044>
    3d08:	01079713          	slli	a4,a5,0x10
    3d0c:	8341                	srli	a4,a4,0x10
    3d0e:	77e1                	lui	a5,0xffff8
    3d10:	8fd9                	or	a5,a5,a4
    3d12:	01079713          	slli	a4,a5,0x10
    3d16:	8341                	srli	a4,a4,0x10
    3d18:	fec42783          	lw	a5,-20(s0)
    3d1c:	04e79223          	sh	a4,68(a5) # ffff8044 <_eusrstack+0xdfff0044>
    3d20:	a015                	j	3d44 <TIM_CtrlPWMOutputs+0x58>
    3d22:	fec42783          	lw	a5,-20(s0)
    3d26:	0447d783          	lhu	a5,68(a5)
    3d2a:	01079713          	slli	a4,a5,0x10
    3d2e:	8341                	srli	a4,a4,0x10
    3d30:	67a1                	lui	a5,0x8
    3d32:	17fd                	addi	a5,a5,-1
    3d34:	8ff9                	and	a5,a5,a4
    3d36:	01079713          	slli	a4,a5,0x10
    3d3a:	8341                	srli	a4,a4,0x10
    3d3c:	fec42783          	lw	a5,-20(s0)
    3d40:	04e79223          	sh	a4,68(a5) # 8044 <_data_lma+0x2920>
    3d44:	0001                	nop
    3d46:	4472                	lw	s0,28(sp)
    3d48:	6105                	addi	sp,sp,32
    3d4a:	8082                	ret

00003d4c <TIM_ITConfig>:
    3d4c:	1101                	addi	sp,sp,-32
    3d4e:	ce22                	sw	s0,28(sp)
    3d50:	1000                	addi	s0,sp,32
    3d52:	fea42623          	sw	a0,-20(s0)
    3d56:	87ae                	mv	a5,a1
    3d58:	fec42223          	sw	a2,-28(s0)
    3d5c:	fef41523          	sh	a5,-22(s0)
    3d60:	fe442783          	lw	a5,-28(s0)
    3d64:	c38d                	beqz	a5,3d86 <TIM_ITConfig+0x3a>
    3d66:	fec42783          	lw	a5,-20(s0)
    3d6a:	27de                	lhu	a5,12(a5)
    3d6c:	01079713          	slli	a4,a5,0x10
    3d70:	8341                	srli	a4,a4,0x10
    3d72:	fea45783          	lhu	a5,-22(s0)
    3d76:	8fd9                	or	a5,a5,a4
    3d78:	01079713          	slli	a4,a5,0x10
    3d7c:	8341                	srli	a4,a4,0x10
    3d7e:	fec42783          	lw	a5,-20(s0)
    3d82:	a7da                	sh	a4,12(a5)
    3d84:	a025                	j	3dac <TIM_ITConfig+0x60>
    3d86:	fec42783          	lw	a5,-20(s0)
    3d8a:	27de                	lhu	a5,12(a5)
    3d8c:	01079713          	slli	a4,a5,0x10
    3d90:	8341                	srli	a4,a4,0x10
    3d92:	fea45783          	lhu	a5,-22(s0)
    3d96:	fff7c793          	not	a5,a5
    3d9a:	07c2                	slli	a5,a5,0x10
    3d9c:	83c1                	srli	a5,a5,0x10
    3d9e:	8ff9                	and	a5,a5,a4
    3da0:	01079713          	slli	a4,a5,0x10
    3da4:	8341                	srli	a4,a4,0x10
    3da6:	fec42783          	lw	a5,-20(s0)
    3daa:	a7da                	sh	a4,12(a5)
    3dac:	0001                	nop
    3dae:	4472                	lw	s0,28(sp)
    3db0:	6105                	addi	sp,sp,32
    3db2:	8082                	ret

00003db4 <TIM_DMACmd>:
    3db4:	1101                	addi	sp,sp,-32
    3db6:	ce22                	sw	s0,28(sp)
    3db8:	1000                	addi	s0,sp,32
    3dba:	fea42623          	sw	a0,-20(s0)
    3dbe:	87ae                	mv	a5,a1
    3dc0:	fec42223          	sw	a2,-28(s0)
    3dc4:	fef41523          	sh	a5,-22(s0)
    3dc8:	fe442783          	lw	a5,-28(s0)
    3dcc:	c38d                	beqz	a5,3dee <TIM_DMACmd+0x3a>
    3dce:	fec42783          	lw	a5,-20(s0)
    3dd2:	27de                	lhu	a5,12(a5)
    3dd4:	01079713          	slli	a4,a5,0x10
    3dd8:	8341                	srli	a4,a4,0x10
    3dda:	fea45783          	lhu	a5,-22(s0)
    3dde:	8fd9                	or	a5,a5,a4
    3de0:	01079713          	slli	a4,a5,0x10
    3de4:	8341                	srli	a4,a4,0x10
    3de6:	fec42783          	lw	a5,-20(s0)
    3dea:	a7da                	sh	a4,12(a5)
    3dec:	a025                	j	3e14 <TIM_DMACmd+0x60>
    3dee:	fec42783          	lw	a5,-20(s0)
    3df2:	27de                	lhu	a5,12(a5)
    3df4:	01079713          	slli	a4,a5,0x10
    3df8:	8341                	srli	a4,a4,0x10
    3dfa:	fea45783          	lhu	a5,-22(s0)
    3dfe:	fff7c793          	not	a5,a5
    3e02:	07c2                	slli	a5,a5,0x10
    3e04:	83c1                	srli	a5,a5,0x10
    3e06:	8ff9                	and	a5,a5,a4
    3e08:	01079713          	slli	a4,a5,0x10
    3e0c:	8341                	srli	a4,a4,0x10
    3e0e:	fec42783          	lw	a5,-20(s0)
    3e12:	a7da                	sh	a4,12(a5)
    3e14:	0001                	nop
    3e16:	4472                	lw	s0,28(sp)
    3e18:	6105                	addi	sp,sp,32
    3e1a:	8082                	ret

00003e1c <TIM_GetITStatus>:
    3e1c:	7179                	addi	sp,sp,-48
    3e1e:	d622                	sw	s0,44(sp)
    3e20:	1800                	addi	s0,sp,48
    3e22:	fca42e23          	sw	a0,-36(s0)
    3e26:	87ae                	mv	a5,a1
    3e28:	fcf41d23          	sh	a5,-38(s0)
    3e2c:	fe042623          	sw	zero,-20(s0)
    3e30:	fe041523          	sh	zero,-22(s0)
    3e34:	fe041423          	sh	zero,-24(s0)
    3e38:	fdc42783          	lw	a5,-36(s0)
    3e3c:	2b9e                	lhu	a5,16(a5)
    3e3e:	01079713          	slli	a4,a5,0x10
    3e42:	8341                	srli	a4,a4,0x10
    3e44:	fda45783          	lhu	a5,-38(s0)
    3e48:	8ff9                	and	a5,a5,a4
    3e4a:	fef41523          	sh	a5,-22(s0)
    3e4e:	fdc42783          	lw	a5,-36(s0)
    3e52:	27de                	lhu	a5,12(a5)
    3e54:	01079713          	slli	a4,a5,0x10
    3e58:	8341                	srli	a4,a4,0x10
    3e5a:	fda45783          	lhu	a5,-38(s0)
    3e5e:	8ff9                	and	a5,a5,a4
    3e60:	fef41423          	sh	a5,-24(s0)
    3e64:	fea45783          	lhu	a5,-22(s0)
    3e68:	cb81                	beqz	a5,3e78 <TIM_GetITStatus+0x5c>
    3e6a:	fe845783          	lhu	a5,-24(s0)
    3e6e:	c789                	beqz	a5,3e78 <TIM_GetITStatus+0x5c>
    3e70:	4785                	li	a5,1
    3e72:	fef42623          	sw	a5,-20(s0)
    3e76:	a019                	j	3e7c <TIM_GetITStatus+0x60>
    3e78:	fe042623          	sw	zero,-20(s0)
    3e7c:	fec42783          	lw	a5,-20(s0)
    3e80:	853e                	mv	a0,a5
    3e82:	5432                	lw	s0,44(sp)
    3e84:	6145                	addi	sp,sp,48
    3e86:	8082                	ret

00003e88 <TIM_ClearITPendingBit>:
    3e88:	1101                	addi	sp,sp,-32
    3e8a:	ce22                	sw	s0,28(sp)
    3e8c:	1000                	addi	s0,sp,32
    3e8e:	fea42623          	sw	a0,-20(s0)
    3e92:	87ae                	mv	a5,a1
    3e94:	fef41523          	sh	a5,-22(s0)
    3e98:	fea45783          	lhu	a5,-22(s0)
    3e9c:	fff7c793          	not	a5,a5
    3ea0:	01079713          	slli	a4,a5,0x10
    3ea4:	8341                	srli	a4,a4,0x10
    3ea6:	fec42783          	lw	a5,-20(s0)
    3eaa:	ab9a                	sh	a4,16(a5)
    3eac:	0001                	nop
    3eae:	4472                	lw	s0,28(sp)
    3eb0:	6105                	addi	sp,sp,32
    3eb2:	8082                	ret

00003eb4 <USART_Init>:
    3eb4:	715d                	addi	sp,sp,-80
    3eb6:	c686                	sw	ra,76(sp)
    3eb8:	c4a2                	sw	s0,72(sp)
    3eba:	0880                	addi	s0,sp,80
    3ebc:	faa42e23          	sw	a0,-68(s0)
    3ec0:	fab42c23          	sw	a1,-72(s0)
    3ec4:	fe042423          	sw	zero,-24(s0)
    3ec8:	fe042623          	sw	zero,-20(s0)
    3ecc:	fe042223          	sw	zero,-28(s0)
    3ed0:	fe042023          	sw	zero,-32(s0)
    3ed4:	fc042e23          	sw	zero,-36(s0)
    3ed8:	fbc42783          	lw	a5,-68(s0)
    3edc:	fcf42e23          	sw	a5,-36(s0)
    3ee0:	fbc42783          	lw	a5,-68(s0)
    3ee4:	2b9e                	lhu	a5,16(a5)
    3ee6:	07c2                	slli	a5,a5,0x10
    3ee8:	83c1                	srli	a5,a5,0x10
    3eea:	fef42423          	sw	a5,-24(s0)
    3eee:	fe842703          	lw	a4,-24(s0)
    3ef2:	67b5                	lui	a5,0xd
    3ef4:	17fd                	addi	a5,a5,-1
    3ef6:	8ff9                	and	a5,a5,a4
    3ef8:	fef42423          	sw	a5,-24(s0)
    3efc:	fb842783          	lw	a5,-72(s0)
    3f00:	23fe                	lhu	a5,6(a5)
    3f02:	873e                	mv	a4,a5
    3f04:	fe842783          	lw	a5,-24(s0)
    3f08:	8fd9                	or	a5,a5,a4
    3f0a:	fef42423          	sw	a5,-24(s0)
    3f0e:	fe842783          	lw	a5,-24(s0)
    3f12:	01079713          	slli	a4,a5,0x10
    3f16:	8341                	srli	a4,a4,0x10
    3f18:	fbc42783          	lw	a5,-68(s0)
    3f1c:	ab9a                	sh	a4,16(a5)
    3f1e:	fbc42783          	lw	a5,-68(s0)
    3f22:	27de                	lhu	a5,12(a5)
    3f24:	07c2                	slli	a5,a5,0x10
    3f26:	83c1                	srli	a5,a5,0x10
    3f28:	fef42423          	sw	a5,-24(s0)
    3f2c:	fe842703          	lw	a4,-24(s0)
    3f30:	67bd                	lui	a5,0xf
    3f32:	9f378793          	addi	a5,a5,-1549 # e9f3 <_data_lma+0x92cf>
    3f36:	8ff9                	and	a5,a5,a4
    3f38:	fef42423          	sw	a5,-24(s0)
    3f3c:	fb842783          	lw	a5,-72(s0)
    3f40:	23da                	lhu	a4,4(a5)
    3f42:	fb842783          	lw	a5,-72(s0)
    3f46:	279e                	lhu	a5,8(a5)
    3f48:	8fd9                	or	a5,a5,a4
    3f4a:	01079713          	slli	a4,a5,0x10
    3f4e:	8341                	srli	a4,a4,0x10
    3f50:	fb842783          	lw	a5,-72(s0)
    3f54:	27be                	lhu	a5,10(a5)
    3f56:	8fd9                	or	a5,a5,a4
    3f58:	07c2                	slli	a5,a5,0x10
    3f5a:	83c1                	srli	a5,a5,0x10
    3f5c:	873e                	mv	a4,a5
    3f5e:	fe842783          	lw	a5,-24(s0)
    3f62:	8fd9                	or	a5,a5,a4
    3f64:	fef42423          	sw	a5,-24(s0)
    3f68:	fe842783          	lw	a5,-24(s0)
    3f6c:	01079713          	slli	a4,a5,0x10
    3f70:	8341                	srli	a4,a4,0x10
    3f72:	fbc42783          	lw	a5,-68(s0)
    3f76:	a7da                	sh	a4,12(a5)
    3f78:	fbc42783          	lw	a5,-68(s0)
    3f7c:	2bde                	lhu	a5,20(a5)
    3f7e:	07c2                	slli	a5,a5,0x10
    3f80:	83c1                	srli	a5,a5,0x10
    3f82:	fef42423          	sw	a5,-24(s0)
    3f86:	fe842703          	lw	a4,-24(s0)
    3f8a:	67c1                	lui	a5,0x10
    3f8c:	cff78793          	addi	a5,a5,-769 # fcff <_data_lma+0xa5db>
    3f90:	8ff9                	and	a5,a5,a4
    3f92:	fef42423          	sw	a5,-24(s0)
    3f96:	fb842783          	lw	a5,-72(s0)
    3f9a:	27de                	lhu	a5,12(a5)
    3f9c:	873e                	mv	a4,a5
    3f9e:	fe842783          	lw	a5,-24(s0)
    3fa2:	8fd9                	or	a5,a5,a4
    3fa4:	fef42423          	sw	a5,-24(s0)
    3fa8:	fe842783          	lw	a5,-24(s0)
    3fac:	01079713          	slli	a4,a5,0x10
    3fb0:	8341                	srli	a4,a4,0x10
    3fb2:	fbc42783          	lw	a5,-68(s0)
    3fb6:	abda                	sh	a4,20(a5)
    3fb8:	fc840793          	addi	a5,s0,-56
    3fbc:	853e                	mv	a0,a5
    3fbe:	a12ff0ef          	jal	ra,31d0 <RCC_GetClocksFreq>
    3fc2:	fdc42703          	lw	a4,-36(s0)
    3fc6:	400147b7          	lui	a5,0x40014
    3fca:	80078793          	addi	a5,a5,-2048 # 40013800 <_eusrstack+0x2000b800>
    3fce:	00f71763          	bne	a4,a5,3fdc <USART_Init+0x128>
    3fd2:	fd442783          	lw	a5,-44(s0)
    3fd6:	fef42623          	sw	a5,-20(s0)
    3fda:	a029                	j	3fe4 <USART_Init+0x130>
    3fdc:	fd042783          	lw	a5,-48(s0)
    3fe0:	fef42623          	sw	a5,-20(s0)
    3fe4:	fec42703          	lw	a4,-20(s0)
    3fe8:	87ba                	mv	a5,a4
    3fea:	0786                	slli	a5,a5,0x1
    3fec:	97ba                	add	a5,a5,a4
    3fee:	078e                	slli	a5,a5,0x3
    3ff0:	973e                	add	a4,a4,a5
    3ff2:	fb842783          	lw	a5,-72(s0)
    3ff6:	439c                	lw	a5,0(a5)
    3ff8:	078a                	slli	a5,a5,0x2
    3ffa:	02f757b3          	divu	a5,a4,a5
    3ffe:	fef42223          	sw	a5,-28(s0)
    4002:	fe442703          	lw	a4,-28(s0)
    4006:	06400793          	li	a5,100
    400a:	02f757b3          	divu	a5,a4,a5
    400e:	0792                	slli	a5,a5,0x4
    4010:	fef42423          	sw	a5,-24(s0)
    4014:	fe842783          	lw	a5,-24(s0)
    4018:	0047d713          	srli	a4,a5,0x4
    401c:	06400793          	li	a5,100
    4020:	02f707b3          	mul	a5,a4,a5
    4024:	fe442703          	lw	a4,-28(s0)
    4028:	40f707b3          	sub	a5,a4,a5
    402c:	fef42023          	sw	a5,-32(s0)
    4030:	fe042783          	lw	a5,-32(s0)
    4034:	0792                	slli	a5,a5,0x4
    4036:	03278713          	addi	a4,a5,50
    403a:	06400793          	li	a5,100
    403e:	02f757b3          	divu	a5,a4,a5
    4042:	8bbd                	andi	a5,a5,15
    4044:	fe842703          	lw	a4,-24(s0)
    4048:	8fd9                	or	a5,a5,a4
    404a:	fef42423          	sw	a5,-24(s0)
    404e:	fe842783          	lw	a5,-24(s0)
    4052:	01079713          	slli	a4,a5,0x10
    4056:	8341                	srli	a4,a4,0x10
    4058:	fbc42783          	lw	a5,-68(s0)
    405c:	a79a                	sh	a4,8(a5)
    405e:	0001                	nop
    4060:	40b6                	lw	ra,76(sp)
    4062:	4426                	lw	s0,72(sp)
    4064:	6161                	addi	sp,sp,80
    4066:	8082                	ret

00004068 <USART_Cmd>:
    4068:	1101                	addi	sp,sp,-32
    406a:	ce22                	sw	s0,28(sp)
    406c:	1000                	addi	s0,sp,32
    406e:	fea42623          	sw	a0,-20(s0)
    4072:	feb42423          	sw	a1,-24(s0)
    4076:	fe842783          	lw	a5,-24(s0)
    407a:	c385                	beqz	a5,409a <USART_Cmd+0x32>
    407c:	fec42783          	lw	a5,-20(s0)
    4080:	27de                	lhu	a5,12(a5)
    4082:	01079713          	slli	a4,a5,0x10
    4086:	8341                	srli	a4,a4,0x10
    4088:	6789                	lui	a5,0x2
    408a:	8fd9                	or	a5,a5,a4
    408c:	01079713          	slli	a4,a5,0x10
    4090:	8341                	srli	a4,a4,0x10
    4092:	fec42783          	lw	a5,-20(s0)
    4096:	a7da                	sh	a4,12(a5)
    4098:	a005                	j	40b8 <USART_Cmd+0x50>
    409a:	fec42783          	lw	a5,-20(s0)
    409e:	27de                	lhu	a5,12(a5)
    40a0:	01079713          	slli	a4,a5,0x10
    40a4:	8341                	srli	a4,a4,0x10
    40a6:	77f9                	lui	a5,0xffffe
    40a8:	17fd                	addi	a5,a5,-1
    40aa:	8ff9                	and	a5,a5,a4
    40ac:	01079713          	slli	a4,a5,0x10
    40b0:	8341                	srli	a4,a4,0x10
    40b2:	fec42783          	lw	a5,-20(s0)
    40b6:	a7da                	sh	a4,12(a5)
    40b8:	0001                	nop
    40ba:	4472                	lw	s0,28(sp)
    40bc:	6105                	addi	sp,sp,32
    40be:	8082                	ret

000040c0 <USART_SendData>:
    40c0:	1101                	addi	sp,sp,-32
    40c2:	ce22                	sw	s0,28(sp)
    40c4:	1000                	addi	s0,sp,32
    40c6:	fea42623          	sw	a0,-20(s0)
    40ca:	87ae                	mv	a5,a1
    40cc:	fef41523          	sh	a5,-22(s0)
    40d0:	fea45783          	lhu	a5,-22(s0)
    40d4:	1ff7f793          	andi	a5,a5,511
    40d8:	01079713          	slli	a4,a5,0x10
    40dc:	8341                	srli	a4,a4,0x10
    40de:	fec42783          	lw	a5,-20(s0)
    40e2:	a3da                	sh	a4,4(a5)
    40e4:	0001                	nop
    40e6:	4472                	lw	s0,28(sp)
    40e8:	6105                	addi	sp,sp,32
    40ea:	8082                	ret

000040ec <USART_GetFlagStatus>:
    40ec:	7179                	addi	sp,sp,-48
    40ee:	d622                	sw	s0,44(sp)
    40f0:	1800                	addi	s0,sp,48
    40f2:	fca42e23          	sw	a0,-36(s0)
    40f6:	87ae                	mv	a5,a1
    40f8:	fcf41d23          	sh	a5,-38(s0)
    40fc:	fe042623          	sw	zero,-20(s0)
    4100:	fdc42783          	lw	a5,-36(s0)
    4104:	239e                	lhu	a5,0(a5)
    4106:	01079713          	slli	a4,a5,0x10
    410a:	8341                	srli	a4,a4,0x10
    410c:	fda45783          	lhu	a5,-38(s0)
    4110:	8ff9                	and	a5,a5,a4
    4112:	07c2                	slli	a5,a5,0x10
    4114:	83c1                	srli	a5,a5,0x10
    4116:	c789                	beqz	a5,4120 <USART_GetFlagStatus+0x34>
    4118:	4785                	li	a5,1
    411a:	fef42623          	sw	a5,-20(s0)
    411e:	a019                	j	4124 <USART_GetFlagStatus+0x38>
    4120:	fe042623          	sw	zero,-20(s0)
    4124:	fec42783          	lw	a5,-20(s0)
    4128:	853e                	mv	a0,a5
    412a:	5432                	lw	s0,44(sp)
    412c:	6145                	addi	sp,sp,48
    412e:	8082                	ret

00004130 <FLASH_readWrite>:
    4130:	1101                	addi	sp,sp,-32
    4132:	ce06                	sw	ra,28(sp)
    4134:	cc22                	sw	s0,24(sp)
    4136:	1000                	addi	s0,sp,32
    4138:	87aa                	mv	a5,a0
    413a:	fef407a3          	sb	a5,-17(s0)
    413e:	0001                	nop
    4140:	4589                	li	a1,2
    4142:	40013537          	lui	a0,0x40013
    4146:	ff0ff0ef          	jal	ra,3936 <SPI_I2S_GetFlagStatus>
    414a:	87aa                	mv	a5,a0
    414c:	dbf5                	beqz	a5,4140 <FLASH_readWrite+0x10>
    414e:	fef44783          	lbu	a5,-17(s0)
    4152:	07c2                	slli	a5,a5,0x10
    4154:	83c1                	srli	a5,a5,0x10
    4156:	85be                	mv	a1,a5
    4158:	40013537          	lui	a0,0x40013
    415c:	f9cff0ef          	jal	ra,38f8 <SPI_I2S_SendData>
    4160:	0001                	nop
    4162:	4585                	li	a1,1
    4164:	40013537          	lui	a0,0x40013
    4168:	fceff0ef          	jal	ra,3936 <SPI_I2S_GetFlagStatus>
    416c:	87aa                	mv	a5,a0
    416e:	dbf5                	beqz	a5,4162 <FLASH_readWrite+0x32>
    4170:	40013537          	lui	a0,0x40013
    4174:	fa6ff0ef          	jal	ra,391a <SPI_I2S_ReceiveData>
    4178:	87aa                	mv	a5,a0
    417a:	0ff7f793          	andi	a5,a5,255
    417e:	853e                	mv	a0,a5
    4180:	40f2                	lw	ra,28(sp)
    4182:	4462                	lw	s0,24(sp)
    4184:	6105                	addi	sp,sp,32
    4186:	8082                	ret

00004188 <cs_pin_init>:
    4188:	1101                	addi	sp,sp,-32
    418a:	ce06                	sw	ra,28(sp)
    418c:	cc22                	sw	s0,24(sp)
    418e:	1000                	addi	s0,sp,32
    4190:	4585                	li	a1,1
    4192:	4511                	li	a0,4
    4194:	c10ff0ef          	jal	ra,35a4 <RCC_APB2PeriphClockCmd>
    4198:	4791                	li	a5,4
    419a:	fef41223          	sh	a5,-28(s0)
    419e:	478d                	li	a5,3
    41a0:	fef42423          	sw	a5,-24(s0)
    41a4:	47c1                	li	a5,16
    41a6:	fef42623          	sw	a5,-20(s0)
    41aa:	fe440793          	addi	a5,s0,-28
    41ae:	85be                	mv	a1,a5
    41b0:	400117b7          	lui	a5,0x40011
    41b4:	80078513          	addi	a0,a5,-2048 # 40010800 <_eusrstack+0x20008800>
    41b8:	8dffe0ef          	jal	ra,2a96 <GPIO_Init>
    41bc:	0001                	nop
    41be:	40f2                	lw	ra,28(sp)
    41c0:	4462                	lw	s0,24(sp)
    41c2:	6105                	addi	sp,sp,32
    41c4:	8082                	ret

000041c6 <SPI_FLASH_Init>:
    41c6:	1141                	addi	sp,sp,-16
    41c8:	c606                	sw	ra,12(sp)
    41ca:	c422                	sw	s0,8(sp)
    41cc:	0800                	addi	s0,sp,16
    41ce:	7ac000ef          	jal	ra,497a <SPI1_Init>
    41d2:	09b000ef          	jal	ra,4a6c <SPI1_Read_DMA_Init>
    41d6:	3f4d                	jal	4188 <cs_pin_init>
    41d8:	400117b7          	lui	a5,0x40011
    41dc:	80078793          	addi	a5,a5,-2048 # 40010800 <_eusrstack+0x20008800>
    41e0:	4711                	li	a4,4
    41e2:	cb98                	sw	a4,16(a5)
    41e4:	0001                	nop
    41e6:	40b2                	lw	ra,12(sp)
    41e8:	4422                	lw	s0,8(sp)
    41ea:	0141                	addi	sp,sp,16
    41ec:	8082                	ret

000041ee <SPI_Flash_Read_dma_start>:
    41ee:	1101                	addi	sp,sp,-32
    41f0:	ce06                	sw	ra,28(sp)
    41f2:	cc22                	sw	s0,24(sp)
    41f4:	1000                	addi	s0,sp,32
    41f6:	fea42623          	sw	a0,-20(s0)
    41fa:	400117b7          	lui	a5,0x40011
    41fe:	80078793          	addi	a5,a5,-2048 # 40010800 <_eusrstack+0x20008800>
    4202:	4711                	li	a4,4
    4204:	cbd8                	sw	a4,20(a5)
    4206:	452d                	li	a0,11
    4208:	3725                	jal	4130 <FLASH_readWrite>
    420a:	fec42783          	lw	a5,-20(s0)
    420e:	83c1                	srli	a5,a5,0x10
    4210:	0ff7f793          	andi	a5,a5,255
    4214:	853e                	mv	a0,a5
    4216:	3f29                	jal	4130 <FLASH_readWrite>
    4218:	fec42783          	lw	a5,-20(s0)
    421c:	83a1                	srli	a5,a5,0x8
    421e:	0ff7f793          	andi	a5,a5,255
    4222:	853e                	mv	a0,a5
    4224:	3731                	jal	4130 <FLASH_readWrite>
    4226:	fec42783          	lw	a5,-20(s0)
    422a:	0ff7f793          	andi	a5,a5,255
    422e:	853e                	mv	a0,a5
    4230:	3701                	jal	4130 <FLASH_readWrite>
    4232:	0ff00513          	li	a0,255
    4236:	3ded                	jal	4130 <FLASH_readWrite>
    4238:	4605                	li	a2,1
    423a:	458d                	li	a1,3
    423c:	40013537          	lui	a0,0x40013
    4240:	e50ff0ef          	jal	ra,3890 <SPI_I2S_DMACmd>
    4244:	0001                	nop
    4246:	40f2                	lw	ra,28(sp)
    4248:	4462                	lw	s0,24(sp)
    424a:	6105                	addi	sp,sp,32
    424c:	8082                	ret

0000424e <SPI_Flash_Read_dma_end>:
    424e:	1141                	addi	sp,sp,-16
    4250:	c606                	sw	ra,12(sp)
    4252:	c422                	sw	s0,8(sp)
    4254:	0800                	addi	s0,sp,16
    4256:	400117b7          	lui	a5,0x40011
    425a:	80078793          	addi	a5,a5,-2048 # 40010800 <_eusrstack+0x20008800>
    425e:	4711                	li	a4,4
    4260:	cb98                	sw	a4,16(a5)
    4262:	4601                	li	a2,0
    4264:	458d                	li	a1,3
    4266:	40013537          	lui	a0,0x40013
    426a:	e26ff0ef          	jal	ra,3890 <SPI_I2S_DMACmd>
    426e:	0001                	nop
    4270:	40b2                	lw	ra,12(sp)
    4272:	4422                	lw	s0,8(sp)
    4274:	0141                	addi	sp,sp,16
    4276:	8082                	ret

00004278 <LCD_WR_REG>:
    4278:	1101                	addi	sp,sp,-32
    427a:	ce06                	sw	ra,28(sp)
    427c:	cc22                	sw	s0,24(sp)
    427e:	1000                	addi	s0,sp,32
    4280:	87aa                	mv	a5,a0
    4282:	fef407a3          	sb	a5,-17(s0)
    4286:	400117b7          	lui	a5,0x40011
    428a:	c0078793          	addi	a5,a5,-1024 # 40010c00 <_eusrstack+0x20008c00>
    428e:	6705                	lui	a4,0x1
    4290:	cbd8                	sw	a4,20(a5)
    4292:	400117b7          	lui	a5,0x40011
    4296:	c0078793          	addi	a5,a5,-1024 # 40010c00 <_eusrstack+0x20008c00>
    429a:	40000713          	li	a4,1024
    429e:	cbd8                	sw	a4,20(a5)
    42a0:	fef44783          	lbu	a5,-17(s0)
    42a4:	853e                	mv	a0,a5
    42a6:	303000ef          	jal	ra,4da8 <SPI2_Write>
    42aa:	400117b7          	lui	a5,0x40011
    42ae:	c0078793          	addi	a5,a5,-1024 # 40010c00 <_eusrstack+0x20008c00>
    42b2:	6705                	lui	a4,0x1
    42b4:	cb98                	sw	a4,16(a5)
    42b6:	0001                	nop
    42b8:	40f2                	lw	ra,28(sp)
    42ba:	4462                	lw	s0,24(sp)
    42bc:	6105                	addi	sp,sp,32
    42be:	8082                	ret

000042c0 <LCD_WR_DATA>:
    42c0:	1101                	addi	sp,sp,-32
    42c2:	ce06                	sw	ra,28(sp)
    42c4:	cc22                	sw	s0,24(sp)
    42c6:	1000                	addi	s0,sp,32
    42c8:	87aa                	mv	a5,a0
    42ca:	fef407a3          	sb	a5,-17(s0)
    42ce:	400117b7          	lui	a5,0x40011
    42d2:	c0078793          	addi	a5,a5,-1024 # 40010c00 <_eusrstack+0x20008c00>
    42d6:	6705                	lui	a4,0x1
    42d8:	cbd8                	sw	a4,20(a5)
    42da:	400117b7          	lui	a5,0x40011
    42de:	c0078793          	addi	a5,a5,-1024 # 40010c00 <_eusrstack+0x20008c00>
    42e2:	40000713          	li	a4,1024
    42e6:	cb98                	sw	a4,16(a5)
    42e8:	fef44783          	lbu	a5,-17(s0)
    42ec:	853e                	mv	a0,a5
    42ee:	2bb000ef          	jal	ra,4da8 <SPI2_Write>
    42f2:	400117b7          	lui	a5,0x40011
    42f6:	c0078793          	addi	a5,a5,-1024 # 40010c00 <_eusrstack+0x20008c00>
    42fa:	6705                	lui	a4,0x1
    42fc:	cb98                	sw	a4,16(a5)
    42fe:	0001                	nop
    4300:	40f2                	lw	ra,28(sp)
    4302:	4462                	lw	s0,24(sp)
    4304:	6105                	addi	sp,sp,32
    4306:	8082                	ret

00004308 <LCD_WriteReg>:
    4308:	1101                	addi	sp,sp,-32
    430a:	ce06                	sw	ra,28(sp)
    430c:	cc22                	sw	s0,24(sp)
    430e:	1000                	addi	s0,sp,32
    4310:	87aa                	mv	a5,a0
    4312:	872e                	mv	a4,a1
    4314:	fef407a3          	sb	a5,-17(s0)
    4318:	87ba                	mv	a5,a4
    431a:	fef40723          	sb	a5,-18(s0)
    431e:	fef44783          	lbu	a5,-17(s0)
    4322:	853e                	mv	a0,a5
    4324:	3f91                	jal	4278 <LCD_WR_REG>
    4326:	fee44783          	lbu	a5,-18(s0)
    432a:	853e                	mv	a0,a5
    432c:	3f51                	jal	42c0 <LCD_WR_DATA>
    432e:	0001                	nop
    4330:	40f2                	lw	ra,28(sp)
    4332:	4462                	lw	s0,24(sp)
    4334:	6105                	addi	sp,sp,32
    4336:	8082                	ret

00004338 <LCD_GPIOInit>:
    4338:	1101                	addi	sp,sp,-32
    433a:	ce06                	sw	ra,28(sp)
    433c:	cc22                	sw	s0,24(sp)
    433e:	1000                	addi	s0,sp,32
    4340:	4585                	li	a1,1
    4342:	4521                	li	a0,8
    4344:	a60ff0ef          	jal	ra,35a4 <RCC_APB2PeriphClockCmd>
    4348:	4585                	li	a1,1
    434a:	4521                	li	a0,8
    434c:	a58ff0ef          	jal	ra,35a4 <RCC_APB2PeriphClockCmd>
    4350:	4585                	li	a1,1
    4352:	4521                	li	a0,8
    4354:	a50ff0ef          	jal	ra,35a4 <RCC_APB2PeriphClockCmd>
    4358:	4585                	li	a1,1
    435a:	4521                	li	a0,8
    435c:	a48ff0ef          	jal	ra,35a4 <RCC_APB2PeriphClockCmd>
    4360:	20000793          	li	a5,512
    4364:	fef41223          	sh	a5,-28(s0)
    4368:	478d                	li	a5,3
    436a:	fef42423          	sw	a5,-24(s0)
    436e:	47c1                	li	a5,16
    4370:	fef42623          	sw	a5,-20(s0)
    4374:	fe440793          	addi	a5,s0,-28
    4378:	85be                	mv	a1,a5
    437a:	400117b7          	lui	a5,0x40011
    437e:	c0078513          	addi	a0,a5,-1024 # 40010c00 <_eusrstack+0x20008c00>
    4382:	f14fe0ef          	jal	ra,2a96 <GPIO_Init>
    4386:	40000793          	li	a5,1024
    438a:	fef41223          	sh	a5,-28(s0)
    438e:	478d                	li	a5,3
    4390:	fef42423          	sw	a5,-24(s0)
    4394:	47c1                	li	a5,16
    4396:	fef42623          	sw	a5,-20(s0)
    439a:	fe440793          	addi	a5,s0,-28
    439e:	85be                	mv	a1,a5
    43a0:	400117b7          	lui	a5,0x40011
    43a4:	c0078513          	addi	a0,a5,-1024 # 40010c00 <_eusrstack+0x20008c00>
    43a8:	eeefe0ef          	jal	ra,2a96 <GPIO_Init>
    43ac:	6785                	lui	a5,0x1
    43ae:	80078793          	addi	a5,a5,-2048 # 800 <__stack_size>
    43b2:	fef41223          	sh	a5,-28(s0)
    43b6:	478d                	li	a5,3
    43b8:	fef42423          	sw	a5,-24(s0)
    43bc:	47c1                	li	a5,16
    43be:	fef42623          	sw	a5,-20(s0)
    43c2:	fe440793          	addi	a5,s0,-28
    43c6:	85be                	mv	a1,a5
    43c8:	400117b7          	lui	a5,0x40011
    43cc:	c0078513          	addi	a0,a5,-1024 # 40010c00 <_eusrstack+0x20008c00>
    43d0:	ec6fe0ef          	jal	ra,2a96 <GPIO_Init>
    43d4:	6785                	lui	a5,0x1
    43d6:	fef41223          	sh	a5,-28(s0)
    43da:	478d                	li	a5,3
    43dc:	fef42423          	sw	a5,-24(s0)
    43e0:	47c1                	li	a5,16
    43e2:	fef42623          	sw	a5,-20(s0)
    43e6:	fe440793          	addi	a5,s0,-28
    43ea:	85be                	mv	a1,a5
    43ec:	400117b7          	lui	a5,0x40011
    43f0:	c0078513          	addi	a0,a5,-1024 # 40010c00 <_eusrstack+0x20008c00>
    43f4:	ea2fe0ef          	jal	ra,2a96 <GPIO_Init>
    43f8:	0001                	nop
    43fa:	40f2                	lw	ra,28(sp)
    43fc:	4462                	lw	s0,24(sp)
    43fe:	6105                	addi	sp,sp,32
    4400:	8082                	ret

00004402 <LCD_RESET>:
    4402:	1141                	addi	sp,sp,-16
    4404:	c606                	sw	ra,12(sp)
    4406:	c422                	sw	s0,8(sp)
    4408:	0800                	addi	s0,sp,16
    440a:	400117b7          	lui	a5,0x40011
    440e:	c0078793          	addi	a5,a5,-1024 # 40010c00 <_eusrstack+0x20008c00>
    4412:	6705                	lui	a4,0x1
    4414:	80070713          	addi	a4,a4,-2048 # 800 <__stack_size>
    4418:	cbd8                	sw	a4,20(a5)
    441a:	06400513          	li	a0,100
    441e:	7bf000ef          	jal	ra,53dc <Delay_Ms>
    4422:	400117b7          	lui	a5,0x40011
    4426:	c0078793          	addi	a5,a5,-1024 # 40010c00 <_eusrstack+0x20008c00>
    442a:	6705                	lui	a4,0x1
    442c:	80070713          	addi	a4,a4,-2048 # 800 <__stack_size>
    4430:	cb98                	sw	a4,16(a5)
    4432:	03200513          	li	a0,50
    4436:	7a7000ef          	jal	ra,53dc <Delay_Ms>
    443a:	0001                	nop
    443c:	40b2                	lw	ra,12(sp)
    443e:	4422                	lw	s0,8(sp)
    4440:	0141                	addi	sp,sp,16
    4442:	8082                	ret

00004444 <LCD_Init>:
    4444:	1141                	addi	sp,sp,-16
    4446:	c606                	sw	ra,12(sp)
    4448:	c422                	sw	s0,8(sp)
    444a:	0800                	addi	s0,sp,16
    444c:	7b4000ef          	jal	ra,4c00 <SPI2_Init>
    4450:	0a9000ef          	jal	ra,4cf8 <SPI2_DMA_Init>
    4454:	35d5                	jal	4338 <LCD_GPIOInit>
    4456:	3775                	jal	4402 <LCD_RESET>
    4458:	400117b7          	lui	a5,0x40011
    445c:	c0078793          	addi	a5,a5,-1024 # 40010c00 <_eusrstack+0x20008c00>
    4460:	20000713          	li	a4,512
    4464:	cb98                	sw	a4,16(a5)
    4466:	0cf00513          	li	a0,207
    446a:	3539                	jal	4278 <LCD_WR_REG>
    446c:	4501                	li	a0,0
    446e:	3d89                	jal	42c0 <LCD_WR_DATA>
    4470:	0c900513          	li	a0,201
    4474:	35b1                	jal	42c0 <LCD_WR_DATA>
    4476:	03000513          	li	a0,48
    447a:	3599                	jal	42c0 <LCD_WR_DATA>
    447c:	0ed00513          	li	a0,237
    4480:	3be5                	jal	4278 <LCD_WR_REG>
    4482:	06400513          	li	a0,100
    4486:	3d2d                	jal	42c0 <LCD_WR_DATA>
    4488:	450d                	li	a0,3
    448a:	3d1d                	jal	42c0 <LCD_WR_DATA>
    448c:	4549                	li	a0,18
    448e:	3d0d                	jal	42c0 <LCD_WR_DATA>
    4490:	08100513          	li	a0,129
    4494:	3535                	jal	42c0 <LCD_WR_DATA>
    4496:	0e800513          	li	a0,232
    449a:	3bf9                	jal	4278 <LCD_WR_REG>
    449c:	08500513          	li	a0,133
    44a0:	3505                	jal	42c0 <LCD_WR_DATA>
    44a2:	4541                	li	a0,16
    44a4:	3d31                	jal	42c0 <LCD_WR_DATA>
    44a6:	07a00513          	li	a0,122
    44aa:	3d19                	jal	42c0 <LCD_WR_DATA>
    44ac:	0cb00513          	li	a0,203
    44b0:	33e1                	jal	4278 <LCD_WR_REG>
    44b2:	03900513          	li	a0,57
    44b6:	3529                	jal	42c0 <LCD_WR_DATA>
    44b8:	02c00513          	li	a0,44
    44bc:	3511                	jal	42c0 <LCD_WR_DATA>
    44be:	4501                	li	a0,0
    44c0:	3501                	jal	42c0 <LCD_WR_DATA>
    44c2:	03400513          	li	a0,52
    44c6:	3bed                	jal	42c0 <LCD_WR_DATA>
    44c8:	4509                	li	a0,2
    44ca:	3bdd                	jal	42c0 <LCD_WR_DATA>
    44cc:	0f700513          	li	a0,247
    44d0:	3365                	jal	4278 <LCD_WR_REG>
    44d2:	02000513          	li	a0,32
    44d6:	33ed                	jal	42c0 <LCD_WR_DATA>
    44d8:	0ea00513          	li	a0,234
    44dc:	3b71                	jal	4278 <LCD_WR_REG>
    44de:	4501                	li	a0,0
    44e0:	33c5                	jal	42c0 <LCD_WR_DATA>
    44e2:	4501                	li	a0,0
    44e4:	3bf1                	jal	42c0 <LCD_WR_DATA>
    44e6:	0c000513          	li	a0,192
    44ea:	3379                	jal	4278 <LCD_WR_REG>
    44ec:	456d                	li	a0,27
    44ee:	3bc9                	jal	42c0 <LCD_WR_DATA>
    44f0:	0c100513          	li	a0,193
    44f4:	3351                	jal	4278 <LCD_WR_REG>
    44f6:	4501                	li	a0,0
    44f8:	33e1                	jal	42c0 <LCD_WR_DATA>
    44fa:	0c500513          	li	a0,197
    44fe:	3bad                	jal	4278 <LCD_WR_REG>
    4500:	03000513          	li	a0,48
    4504:	3b75                	jal	42c0 <LCD_WR_DATA>
    4506:	03000513          	li	a0,48
    450a:	3b5d                	jal	42c0 <LCD_WR_DATA>
    450c:	0c700513          	li	a0,199
    4510:	33a5                	jal	4278 <LCD_WR_REG>
    4512:	0b700513          	li	a0,183
    4516:	336d                	jal	42c0 <LCD_WR_DATA>
    4518:	03600513          	li	a0,54
    451c:	3bb1                	jal	4278 <LCD_WR_REG>
    451e:	4521                	li	a0,8
    4520:	3345                	jal	42c0 <LCD_WR_DATA>
    4522:	03a00513          	li	a0,58
    4526:	3b89                	jal	4278 <LCD_WR_REG>
    4528:	05500513          	li	a0,85
    452c:	3b51                	jal	42c0 <LCD_WR_DATA>
    452e:	0b100513          	li	a0,177
    4532:	d47ff0ef          	jal	ra,4278 <LCD_WR_REG>
    4536:	4501                	li	a0,0
    4538:	3361                	jal	42c0 <LCD_WR_DATA>
    453a:	4569                	li	a0,26
    453c:	3351                	jal	42c0 <LCD_WR_DATA>
    453e:	0b600513          	li	a0,182
    4542:	d37ff0ef          	jal	ra,4278 <LCD_WR_REG>
    4546:	4529                	li	a0,10
    4548:	3ba5                	jal	42c0 <LCD_WR_DATA>
    454a:	0a200513          	li	a0,162
    454e:	3b8d                	jal	42c0 <LCD_WR_DATA>
    4550:	0f200513          	li	a0,242
    4554:	d25ff0ef          	jal	ra,4278 <LCD_WR_REG>
    4558:	4501                	li	a0,0
    455a:	339d                	jal	42c0 <LCD_WR_DATA>
    455c:	02600513          	li	a0,38
    4560:	d19ff0ef          	jal	ra,4278 <LCD_WR_REG>
    4564:	4505                	li	a0,1
    4566:	3ba9                	jal	42c0 <LCD_WR_DATA>
    4568:	0e000513          	li	a0,224
    456c:	d0dff0ef          	jal	ra,4278 <LCD_WR_REG>
    4570:	453d                	li	a0,15
    4572:	33b9                	jal	42c0 <LCD_WR_DATA>
    4574:	02a00513          	li	a0,42
    4578:	d49ff0ef          	jal	ra,42c0 <LCD_WR_DATA>
    457c:	02800513          	li	a0,40
    4580:	d41ff0ef          	jal	ra,42c0 <LCD_WR_DATA>
    4584:	4521                	li	a0,8
    4586:	d3bff0ef          	jal	ra,42c0 <LCD_WR_DATA>
    458a:	4539                	li	a0,14
    458c:	d35ff0ef          	jal	ra,42c0 <LCD_WR_DATA>
    4590:	4521                	li	a0,8
    4592:	d2fff0ef          	jal	ra,42c0 <LCD_WR_DATA>
    4596:	05400513          	li	a0,84
    459a:	d27ff0ef          	jal	ra,42c0 <LCD_WR_DATA>
    459e:	0a900513          	li	a0,169
    45a2:	d1fff0ef          	jal	ra,42c0 <LCD_WR_DATA>
    45a6:	04300513          	li	a0,67
    45aa:	d17ff0ef          	jal	ra,42c0 <LCD_WR_DATA>
    45ae:	4529                	li	a0,10
    45b0:	d11ff0ef          	jal	ra,42c0 <LCD_WR_DATA>
    45b4:	453d                	li	a0,15
    45b6:	d0bff0ef          	jal	ra,42c0 <LCD_WR_DATA>
    45ba:	4501                	li	a0,0
    45bc:	d05ff0ef          	jal	ra,42c0 <LCD_WR_DATA>
    45c0:	4501                	li	a0,0
    45c2:	cffff0ef          	jal	ra,42c0 <LCD_WR_DATA>
    45c6:	4501                	li	a0,0
    45c8:	cf9ff0ef          	jal	ra,42c0 <LCD_WR_DATA>
    45cc:	4501                	li	a0,0
    45ce:	cf3ff0ef          	jal	ra,42c0 <LCD_WR_DATA>
    45d2:	0e100513          	li	a0,225
    45d6:	ca3ff0ef          	jal	ra,4278 <LCD_WR_REG>
    45da:	4501                	li	a0,0
    45dc:	ce5ff0ef          	jal	ra,42c0 <LCD_WR_DATA>
    45e0:	4555                	li	a0,21
    45e2:	cdfff0ef          	jal	ra,42c0 <LCD_WR_DATA>
    45e6:	455d                	li	a0,23
    45e8:	cd9ff0ef          	jal	ra,42c0 <LCD_WR_DATA>
    45ec:	451d                	li	a0,7
    45ee:	cd3ff0ef          	jal	ra,42c0 <LCD_WR_DATA>
    45f2:	4545                	li	a0,17
    45f4:	ccdff0ef          	jal	ra,42c0 <LCD_WR_DATA>
    45f8:	4519                	li	a0,6
    45fa:	cc7ff0ef          	jal	ra,42c0 <LCD_WR_DATA>
    45fe:	02b00513          	li	a0,43
    4602:	cbfff0ef          	jal	ra,42c0 <LCD_WR_DATA>
    4606:	05600513          	li	a0,86
    460a:	cb7ff0ef          	jal	ra,42c0 <LCD_WR_DATA>
    460e:	03c00513          	li	a0,60
    4612:	cafff0ef          	jal	ra,42c0 <LCD_WR_DATA>
    4616:	4515                	li	a0,5
    4618:	ca9ff0ef          	jal	ra,42c0 <LCD_WR_DATA>
    461c:	4541                	li	a0,16
    461e:	ca3ff0ef          	jal	ra,42c0 <LCD_WR_DATA>
    4622:	453d                	li	a0,15
    4624:	c9dff0ef          	jal	ra,42c0 <LCD_WR_DATA>
    4628:	03f00513          	li	a0,63
    462c:	c95ff0ef          	jal	ra,42c0 <LCD_WR_DATA>
    4630:	03f00513          	li	a0,63
    4634:	c8dff0ef          	jal	ra,42c0 <LCD_WR_DATA>
    4638:	453d                	li	a0,15
    463a:	c87ff0ef          	jal	ra,42c0 <LCD_WR_DATA>
    463e:	02a00513          	li	a0,42
    4642:	c37ff0ef          	jal	ra,4278 <LCD_WR_REG>
    4646:	4501                	li	a0,0
    4648:	c79ff0ef          	jal	ra,42c0 <LCD_WR_DATA>
    464c:	4501                	li	a0,0
    464e:	c73ff0ef          	jal	ra,42c0 <LCD_WR_DATA>
    4652:	4505                	li	a0,1
    4654:	c6dff0ef          	jal	ra,42c0 <LCD_WR_DATA>
    4658:	455d                	li	a0,23
    465a:	c67ff0ef          	jal	ra,42c0 <LCD_WR_DATA>
    465e:	02b00513          	li	a0,43
    4662:	c17ff0ef          	jal	ra,4278 <LCD_WR_REG>
    4666:	4501                	li	a0,0
    4668:	c59ff0ef          	jal	ra,42c0 <LCD_WR_DATA>
    466c:	4501                	li	a0,0
    466e:	c53ff0ef          	jal	ra,42c0 <LCD_WR_DATA>
    4672:	4505                	li	a0,1
    4674:	c4dff0ef          	jal	ra,42c0 <LCD_WR_DATA>
    4678:	03f00513          	li	a0,63
    467c:	c45ff0ef          	jal	ra,42c0 <LCD_WR_DATA>
    4680:	4545                	li	a0,17
    4682:	bf7ff0ef          	jal	ra,4278 <LCD_WR_REG>
    4686:	07800513          	li	a0,120
    468a:	553000ef          	jal	ra,53dc <Delay_Ms>
    468e:	02900513          	li	a0,41
    4692:	be7ff0ef          	jal	ra,4278 <LCD_WR_REG>
    4696:	4509                	li	a0,2
    4698:	2831                	jal	46b4 <LCD_direction>
    469a:	02c00513          	li	a0,44
    469e:	bdbff0ef          	jal	ra,4278 <LCD_WR_REG>
    46a2:	02900513          	li	a0,41
    46a6:	bd3ff0ef          	jal	ra,4278 <LCD_WR_REG>
    46aa:	0001                	nop
    46ac:	40b2                	lw	ra,12(sp)
    46ae:	4422                	lw	s0,8(sp)
    46b0:	0141                	addi	sp,sp,16
    46b2:	8082                	ret

000046b4 <LCD_direction>:
    46b4:	1101                	addi	sp,sp,-32
    46b6:	ce06                	sw	ra,28(sp)
    46b8:	cc22                	sw	s0,24(sp)
    46ba:	1000                	addi	s0,sp,32
    46bc:	87aa                	mv	a5,a0
    46be:	fef407a3          	sb	a5,-17(s0)
    46c2:	fef44783          	lbu	a5,-17(s0)
    46c6:	4705                	li	a4,1
    46c8:	02e78c63          	beq	a5,a4,4700 <LCD_direction+0x4c>
    46cc:	4705                	li	a4,1
    46ce:	00f74463          	blt	a4,a5,46d6 <LCD_direction+0x22>
    46d2:	cb89                	beqz	a5,46e4 <LCD_direction+0x30>
    46d4:	a059                	j	475a <LCD_direction+0xa6>
    46d6:	4709                	li	a4,2
    46d8:	04e78363          	beq	a5,a4,471e <LCD_direction+0x6a>
    46dc:	470d                	li	a4,3
    46de:	04e78f63          	beq	a5,a4,473c <LCD_direction+0x88>
    46e2:	a8a5                	j	475a <LCD_direction+0xa6>
    46e4:	11800713          	li	a4,280
    46e8:	84e19823          	sh	a4,-1968(gp) # 20000490 <width>
    46ec:	0f000713          	li	a4,240
    46f0:	84e19923          	sh	a4,-1966(gp) # 20000492 <height>
    46f4:	45a1                	li	a1,8
    46f6:	03600513          	li	a0,54
    46fa:	c0fff0ef          	jal	ra,4308 <LCD_WriteReg>
    46fe:	a8b1                	j	475a <LCD_direction+0xa6>
    4700:	0f000713          	li	a4,240
    4704:	84e19823          	sh	a4,-1968(gp) # 20000490 <width>
    4708:	11800713          	li	a4,280
    470c:	84e19923          	sh	a4,-1966(gp) # 20000492 <height>
    4710:	06800593          	li	a1,104
    4714:	03600513          	li	a0,54
    4718:	bf1ff0ef          	jal	ra,4308 <LCD_WriteReg>
    471c:	a83d                	j	475a <LCD_direction+0xa6>
    471e:	11800713          	li	a4,280
    4722:	84e19823          	sh	a4,-1968(gp) # 20000490 <width>
    4726:	0f000713          	li	a4,240
    472a:	84e19923          	sh	a4,-1966(gp) # 20000492 <height>
    472e:	0c800593          	li	a1,200
    4732:	03600513          	li	a0,54
    4736:	bd3ff0ef          	jal	ra,4308 <LCD_WriteReg>
    473a:	a005                	j	475a <LCD_direction+0xa6>
    473c:	0f000713          	li	a4,240
    4740:	84e19823          	sh	a4,-1968(gp) # 20000490 <width>
    4744:	11800713          	li	a4,280
    4748:	84e19923          	sh	a4,-1966(gp) # 20000492 <height>
    474c:	0a800593          	li	a1,168
    4750:	03600513          	li	a0,54
    4754:	bb5ff0ef          	jal	ra,4308 <LCD_WriteReg>
    4758:	0001                	nop
    475a:	0001                	nop
    475c:	40f2                	lw	ra,28(sp)
    475e:	4462                	lw	s0,24(sp)
    4760:	6105                	addi	sp,sp,32
    4762:	8082                	ret

00004764 <LCD_drawImageWithSize>:
    4764:	7139                	addi	sp,sp,-64
    4766:	de06                	sw	ra,60(sp)
    4768:	dc22                	sw	s0,56(sp)
    476a:	0080                	addi	s0,sp,64
    476c:	87aa                	mv	a5,a0
    476e:	fce42223          	sw	a4,-60(s0)
    4772:	fcf41723          	sh	a5,-50(s0)
    4776:	87ae                	mv	a5,a1
    4778:	fcf41623          	sh	a5,-52(s0)
    477c:	87b2                	mv	a5,a2
    477e:	fcf41523          	sh	a5,-54(s0)
    4782:	87b6                	mv	a5,a3
    4784:	fcf41423          	sh	a5,-56(s0)
    4788:	fe042623          	sw	zero,-20(s0)
    478c:	fce45703          	lhu	a4,-50(s0)
    4790:	fca45783          	lhu	a5,-54(s0)
    4794:	97ba                	add	a5,a5,a4
    4796:	07c2                	slli	a5,a5,0x10
    4798:	83c1                	srli	a5,a5,0x10
    479a:	17fd                	addi	a5,a5,-1
    479c:	fef41323          	sh	a5,-26(s0)
    47a0:	fcc45703          	lhu	a4,-52(s0)
    47a4:	fc845783          	lhu	a5,-56(s0)
    47a8:	97ba                	add	a5,a5,a4
    47aa:	07c2                	slli	a5,a5,0x10
    47ac:	83c1                	srli	a5,a5,0x10
    47ae:	17fd                	addi	a5,a5,-1
    47b0:	fef41223          	sh	a5,-28(s0)
    47b4:	02a00513          	li	a0,42
    47b8:	ac1ff0ef          	jal	ra,4278 <LCD_WR_REG>
    47bc:	fce45783          	lhu	a5,-50(s0)
    47c0:	83a1                	srli	a5,a5,0x8
    47c2:	07c2                	slli	a5,a5,0x10
    47c4:	83c1                	srli	a5,a5,0x10
    47c6:	0ff7f793          	andi	a5,a5,255
    47ca:	853e                	mv	a0,a5
    47cc:	af5ff0ef          	jal	ra,42c0 <LCD_WR_DATA>
    47d0:	fce45783          	lhu	a5,-50(s0)
    47d4:	0ff7f793          	andi	a5,a5,255
    47d8:	853e                	mv	a0,a5
    47da:	ae7ff0ef          	jal	ra,42c0 <LCD_WR_DATA>
    47de:	fe645783          	lhu	a5,-26(s0)
    47e2:	83a1                	srli	a5,a5,0x8
    47e4:	07c2                	slli	a5,a5,0x10
    47e6:	83c1                	srli	a5,a5,0x10
    47e8:	0ff7f793          	andi	a5,a5,255
    47ec:	853e                	mv	a0,a5
    47ee:	ad3ff0ef          	jal	ra,42c0 <LCD_WR_DATA>
    47f2:	fe645783          	lhu	a5,-26(s0)
    47f6:	0ff7f793          	andi	a5,a5,255
    47fa:	853e                	mv	a0,a5
    47fc:	ac5ff0ef          	jal	ra,42c0 <LCD_WR_DATA>
    4800:	02b00513          	li	a0,43
    4804:	a75ff0ef          	jal	ra,4278 <LCD_WR_REG>
    4808:	fcc45783          	lhu	a5,-52(s0)
    480c:	83a1                	srli	a5,a5,0x8
    480e:	07c2                	slli	a5,a5,0x10
    4810:	83c1                	srli	a5,a5,0x10
    4812:	0ff7f793          	andi	a5,a5,255
    4816:	853e                	mv	a0,a5
    4818:	aa9ff0ef          	jal	ra,42c0 <LCD_WR_DATA>
    481c:	fcc45783          	lhu	a5,-52(s0)
    4820:	0ff7f793          	andi	a5,a5,255
    4824:	853e                	mv	a0,a5
    4826:	a9bff0ef          	jal	ra,42c0 <LCD_WR_DATA>
    482a:	fe445783          	lhu	a5,-28(s0)
    482e:	83a1                	srli	a5,a5,0x8
    4830:	07c2                	slli	a5,a5,0x10
    4832:	83c1                	srli	a5,a5,0x10
    4834:	0ff7f793          	andi	a5,a5,255
    4838:	853e                	mv	a0,a5
    483a:	a87ff0ef          	jal	ra,42c0 <LCD_WR_DATA>
    483e:	fe445783          	lhu	a5,-28(s0)
    4842:	0ff7f793          	andi	a5,a5,255
    4846:	853e                	mv	a0,a5
    4848:	a79ff0ef          	jal	ra,42c0 <LCD_WR_DATA>
    484c:	02c00513          	li	a0,44
    4850:	a29ff0ef          	jal	ra,4278 <LCD_WR_REG>
    4854:	400117b7          	lui	a5,0x40011
    4858:	c0078793          	addi	a5,a5,-1024 # 40010c00 <_eusrstack+0x20008c00>
    485c:	6705                	lui	a4,0x1
    485e:	cbd8                	sw	a4,20(a5)
    4860:	400117b7          	lui	a5,0x40011
    4864:	c0078793          	addi	a5,a5,-1024 # 40010c00 <_eusrstack+0x20008c00>
    4868:	40000713          	li	a4,1024
    486c:	cb98                	sw	a4,16(a5)
    486e:	fca45703          	lhu	a4,-54(s0)
    4872:	fc845783          	lhu	a5,-56(s0)
    4876:	02f707b3          	mul	a5,a4,a5
    487a:	fef42023          	sw	a5,-32(s0)
    487e:	fe042783          	lw	a5,-32(s0)
    4882:	83a1                	srli	a5,a5,0x8
    4884:	fef42423          	sw	a5,-24(s0)
    4888:	fe042783          	lw	a5,-32(s0)
    488c:	0ff7f793          	andi	a5,a5,255
    4890:	fcf42e23          	sw	a5,-36(s0)
    4894:	fc442503          	lw	a0,-60(s0)
    4898:	957ff0ef          	jal	ra,41ee <SPI_Flash_Read_dma_start>
    489c:	fec42783          	lw	a5,-20(s0)
    48a0:	00979713          	slli	a4,a5,0x9
    48a4:	200007b7          	lui	a5,0x20000
    48a8:	5c478793          	addi	a5,a5,1476 # 200005c4 <color_buffer>
    48ac:	97ba                	add	a5,a5,a4
    48ae:	20000593          	li	a1,512
    48b2:	853e                	mv	a0,a5
    48b4:	2475                	jal	4b60 <SPI1_Read_DMA>
    48b6:	a09d                	j	491c <LCD_drawImageWithSize+0x1b8>
    48b8:	0001                	nop
    48ba:	08000593          	li	a1,128
    48be:	40013537          	lui	a0,0x40013
    48c2:	874ff0ef          	jal	ra,3936 <SPI_I2S_GetFlagStatus>
    48c6:	872a                	mv	a4,a0
    48c8:	4785                	li	a5,1
    48ca:	fef708e3          	beq	a4,a5,48ba <LCD_drawImageWithSize+0x156>
    48ce:	fe842783          	lw	a5,-24(s0)
    48d2:	17fd                	addi	a5,a5,-1
    48d4:	fef42423          	sw	a5,-24(s0)
    48d8:	fec42783          	lw	a5,-20(s0)
    48dc:	00979713          	slli	a4,a5,0x9
    48e0:	200007b7          	lui	a5,0x20000
    48e4:	5c478793          	addi	a5,a5,1476 # 200005c4 <color_buffer>
    48e8:	97ba                	add	a5,a5,a4
    48ea:	20000593          	li	a1,512
    48ee:	853e                	mv	a0,a5
    48f0:	2b11                	jal	4e04 <SPI2_Write_DMA>
    48f2:	fec42783          	lw	a5,-20(s0)
    48f6:	0017b793          	seqz	a5,a5
    48fa:	0ff7f793          	andi	a5,a5,255
    48fe:	fef42623          	sw	a5,-20(s0)
    4902:	fec42783          	lw	a5,-20(s0)
    4906:	00979713          	slli	a4,a5,0x9
    490a:	200007b7          	lui	a5,0x20000
    490e:	5c478793          	addi	a5,a5,1476 # 200005c4 <color_buffer>
    4912:	97ba                	add	a5,a5,a4
    4914:	20000593          	li	a1,512
    4918:	853e                	mv	a0,a5
    491a:	2499                	jal	4b60 <SPI1_Read_DMA>
    491c:	fe842783          	lw	a5,-24(s0)
    4920:	ffc1                	bnez	a5,48b8 <LCD_drawImageWithSize+0x154>
    4922:	0001                	nop
    4924:	08000593          	li	a1,128
    4928:	40013537          	lui	a0,0x40013
    492c:	80aff0ef          	jal	ra,3936 <SPI_I2S_GetFlagStatus>
    4930:	872a                	mv	a4,a0
    4932:	4785                	li	a5,1
    4934:	fef708e3          	beq	a4,a5,4924 <LCD_drawImageWithSize+0x1c0>
    4938:	fec42783          	lw	a5,-20(s0)
    493c:	00979713          	slli	a4,a5,0x9
    4940:	200007b7          	lui	a5,0x20000
    4944:	5c478793          	addi	a5,a5,1476 # 200005c4 <color_buffer>
    4948:	973e                	add	a4,a4,a5
    494a:	fdc42783          	lw	a5,-36(s0)
    494e:	07c2                	slli	a5,a5,0x10
    4950:	83c1                	srli	a5,a5,0x10
    4952:	0786                	slli	a5,a5,0x1
    4954:	07c2                	slli	a5,a5,0x10
    4956:	83c1                	srli	a5,a5,0x10
    4958:	85be                	mv	a1,a5
    495a:	853a                	mv	a0,a4
    495c:	2165                	jal	4e04 <SPI2_Write_DMA>
    495e:	0001                	nop
    4960:	00020537          	lui	a0,0x20
    4964:	e29fd0ef          	jal	ra,278c <DMA_GetFlagStatus>
    4968:	87aa                	mv	a5,a0
    496a:	dbfd                	beqz	a5,4960 <LCD_drawImageWithSize+0x1fc>
    496c:	8e3ff0ef          	jal	ra,424e <SPI_Flash_Read_dma_end>
    4970:	0001                	nop
    4972:	50f2                	lw	ra,60(sp)
    4974:	5462                	lw	s0,56(sp)
    4976:	6121                	addi	sp,sp,64
    4978:	8082                	ret

0000497a <SPI1_Init>:
    497a:	7179                	addi	sp,sp,-48
    497c:	d606                	sw	ra,44(sp)
    497e:	d422                	sw	s0,40(sp)
    4980:	1800                	addi	s0,sp,48
    4982:	fe042223          	sw	zero,-28(s0)
    4986:	fe042423          	sw	zero,-24(s0)
    498a:	fe042623          	sw	zero,-20(s0)
    498e:	fc042823          	sw	zero,-48(s0)
    4992:	fc042a23          	sw	zero,-44(s0)
    4996:	fc042c23          	sw	zero,-40(s0)
    499a:	fc042e23          	sw	zero,-36(s0)
    499e:	fe041023          	sh	zero,-32(s0)
    49a2:	4585                	li	a1,1
    49a4:	6785                	lui	a5,0x1
    49a6:	00478513          	addi	a0,a5,4 # 1004 <__stack_size+0x804>
    49aa:	bfbfe0ef          	jal	ra,35a4 <RCC_APB2PeriphClockCmd>
    49ae:	02000793          	li	a5,32
    49b2:	fef41223          	sh	a5,-28(s0)
    49b6:	47e1                	li	a5,24
    49b8:	fef42623          	sw	a5,-20(s0)
    49bc:	478d                	li	a5,3
    49be:	fef42423          	sw	a5,-24(s0)
    49c2:	fe440793          	addi	a5,s0,-28
    49c6:	85be                	mv	a1,a5
    49c8:	400117b7          	lui	a5,0x40011
    49cc:	80078513          	addi	a0,a5,-2048 # 40010800 <_eusrstack+0x20008800>
    49d0:	8c6fe0ef          	jal	ra,2a96 <GPIO_Init>
    49d4:	04000793          	li	a5,64
    49d8:	fef41223          	sh	a5,-28(s0)
    49dc:	4791                	li	a5,4
    49de:	fef42623          	sw	a5,-20(s0)
    49e2:	fe440793          	addi	a5,s0,-28
    49e6:	85be                	mv	a1,a5
    49e8:	400117b7          	lui	a5,0x40011
    49ec:	80078513          	addi	a0,a5,-2048 # 40010800 <_eusrstack+0x20008800>
    49f0:	8a6fe0ef          	jal	ra,2a96 <GPIO_Init>
    49f4:	08000793          	li	a5,128
    49f8:	fef41223          	sh	a5,-28(s0)
    49fc:	47e1                	li	a5,24
    49fe:	fef42623          	sw	a5,-20(s0)
    4a02:	478d                	li	a5,3
    4a04:	fef42423          	sw	a5,-24(s0)
    4a08:	fe440793          	addi	a5,s0,-28
    4a0c:	85be                	mv	a1,a5
    4a0e:	400117b7          	lui	a5,0x40011
    4a12:	80078513          	addi	a0,a5,-2048 # 40010800 <_eusrstack+0x20008800>
    4a16:	880fe0ef          	jal	ra,2a96 <GPIO_Init>
    4a1a:	fc041823          	sh	zero,-48(s0)
    4a1e:	10400793          	li	a5,260
    4a22:	fcf41923          	sh	a5,-46(s0)
    4a26:	fc041a23          	sh	zero,-44(s0)
    4a2a:	fc041b23          	sh	zero,-42(s0)
    4a2e:	fc041c23          	sh	zero,-40(s0)
    4a32:	20000793          	li	a5,512
    4a36:	fcf41d23          	sh	a5,-38(s0)
    4a3a:	47a1                	li	a5,8
    4a3c:	fcf41e23          	sh	a5,-36(s0)
    4a40:	fc041f23          	sh	zero,-34(s0)
    4a44:	479d                	li	a5,7
    4a46:	fef41023          	sh	a5,-32(s0)
    4a4a:	fd040793          	addi	a5,s0,-48
    4a4e:	85be                	mv	a1,a5
    4a50:	40013537          	lui	a0,0x40013
    4a54:	d0ffe0ef          	jal	ra,3762 <SPI_Init>
    4a58:	4585                	li	a1,1
    4a5a:	40013537          	lui	a0,0x40013
    4a5e:	de1fe0ef          	jal	ra,383e <SPI_Cmd>
    4a62:	0001                	nop
    4a64:	50b2                	lw	ra,44(sp)
    4a66:	5422                	lw	s0,40(sp)
    4a68:	6145                	addi	sp,sp,48
    4a6a:	8082                	ret

00004a6c <SPI1_Read_DMA_Init>:
    4a6c:	7139                	addi	sp,sp,-64
    4a6e:	de06                	sw	ra,60(sp)
    4a70:	dc22                	sw	s0,56(sp)
    4a72:	0080                	addi	s0,sp,64
    4a74:	fc042223          	sw	zero,-60(s0)
    4a78:	fc042423          	sw	zero,-56(s0)
    4a7c:	fc042623          	sw	zero,-52(s0)
    4a80:	fc042823          	sw	zero,-48(s0)
    4a84:	fc042a23          	sw	zero,-44(s0)
    4a88:	fc042c23          	sw	zero,-40(s0)
    4a8c:	fc042e23          	sw	zero,-36(s0)
    4a90:	fe042023          	sw	zero,-32(s0)
    4a94:	fe042223          	sw	zero,-28(s0)
    4a98:	fe042423          	sw	zero,-24(s0)
    4a9c:	fe042623          	sw	zero,-20(s0)
    4aa0:	4585                	li	a1,1
    4aa2:	4505                	li	a0,1
    4aa4:	abbfe0ef          	jal	ra,355e <RCC_AHBPeriphClockCmd>
    4aa8:	400207b7          	lui	a5,0x40020
    4aac:	03078513          	addi	a0,a5,48 # 40020030 <_eusrstack+0x20018030>
    4ab0:	8c1fd0ef          	jal	ra,2370 <DMA_DeInit>
    4ab4:	400137b7          	lui	a5,0x40013
    4ab8:	07b1                	addi	a5,a5,12
    4aba:	fcf42223          	sw	a5,-60(s0)
    4abe:	80818793          	addi	a5,gp,-2040 # 20000448 <DummyByte.5364>
    4ac2:	fcf42423          	sw	a5,-56(s0)
    4ac6:	47c1                	li	a5,16
    4ac8:	fcf42623          	sw	a5,-52(s0)
    4acc:	fc042823          	sw	zero,-48(s0)
    4ad0:	fc042a23          	sw	zero,-44(s0)
    4ad4:	fc042c23          	sw	zero,-40(s0)
    4ad8:	fc042e23          	sw	zero,-36(s0)
    4adc:	fe042023          	sw	zero,-32(s0)
    4ae0:	fe042223          	sw	zero,-28(s0)
    4ae4:	6789                	lui	a5,0x2
    4ae6:	fef42423          	sw	a5,-24(s0)
    4aea:	fe042623          	sw	zero,-20(s0)
    4aee:	fc440793          	addi	a5,s0,-60
    4af2:	85be                	mv	a1,a5
    4af4:	400207b7          	lui	a5,0x40020
    4af8:	03078513          	addi	a0,a5,48 # 40020030 <_eusrstack+0x20018030>
    4afc:	b87fd0ef          	jal	ra,2682 <DMA_Init>
    4b00:	400207b7          	lui	a5,0x40020
    4b04:	01c78513          	addi	a0,a5,28 # 4002001c <_eusrstack+0x2001801c>
    4b08:	869fd0ef          	jal	ra,2370 <DMA_DeInit>
    4b0c:	400137b7          	lui	a5,0x40013
    4b10:	07b1                	addi	a5,a5,12
    4b12:	fcf42223          	sw	a5,-60(s0)
    4b16:	fc042423          	sw	zero,-56(s0)
    4b1a:	fc042623          	sw	zero,-52(s0)
    4b1e:	fc042823          	sw	zero,-48(s0)
    4b22:	fc042a23          	sw	zero,-44(s0)
    4b26:	08000793          	li	a5,128
    4b2a:	fcf42c23          	sw	a5,-40(s0)
    4b2e:	fc042e23          	sw	zero,-36(s0)
    4b32:	fe042023          	sw	zero,-32(s0)
    4b36:	fe042223          	sw	zero,-28(s0)
    4b3a:	6789                	lui	a5,0x2
    4b3c:	fef42423          	sw	a5,-24(s0)
    4b40:	fe042623          	sw	zero,-20(s0)
    4b44:	fc440793          	addi	a5,s0,-60
    4b48:	85be                	mv	a1,a5
    4b4a:	400207b7          	lui	a5,0x40020
    4b4e:	01c78513          	addi	a0,a5,28 # 4002001c <_eusrstack+0x2001801c>
    4b52:	b31fd0ef          	jal	ra,2682 <DMA_Init>
    4b56:	0001                	nop
    4b58:	50f2                	lw	ra,60(sp)
    4b5a:	5462                	lw	s0,56(sp)
    4b5c:	6121                	addi	sp,sp,64
    4b5e:	8082                	ret

00004b60 <SPI1_Read_DMA>:
    4b60:	1101                	addi	sp,sp,-32
    4b62:	ce06                	sw	ra,28(sp)
    4b64:	cc22                	sw	s0,24(sp)
    4b66:	1000                	addi	s0,sp,32
    4b68:	fea42623          	sw	a0,-20(s0)
    4b6c:	87ae                	mv	a5,a1
    4b6e:	fef41523          	sh	a5,-22(s0)
    4b72:	0001                	nop
    4b74:	08000593          	li	a1,128
    4b78:	40013537          	lui	a0,0x40013
    4b7c:	dbbfe0ef          	jal	ra,3936 <SPI_I2S_GetFlagStatus>
    4b80:	872a                	mv	a4,a0
    4b82:	4785                	li	a5,1
    4b84:	fef708e3          	beq	a4,a5,4b74 <SPI1_Read_DMA+0x14>
    4b88:	4581                	li	a1,0
    4b8a:	400207b7          	lui	a5,0x40020
    4b8e:	03078513          	addi	a0,a5,48 # 40020030 <_eusrstack+0x20018030>
    4b92:	b99fd0ef          	jal	ra,272a <DMA_Cmd>
    4b96:	4581                	li	a1,0
    4b98:	400207b7          	lui	a5,0x40020
    4b9c:	01c78513          	addi	a0,a5,28 # 4002001c <_eusrstack+0x2001801c>
    4ba0:	b8bfd0ef          	jal	ra,272a <DMA_Cmd>
    4ba4:	20000513          	li	a0,512
    4ba8:	c5dfd0ef          	jal	ra,2804 <DMA_ClearFlag>
    4bac:	20000513          	li	a0,512
    4bb0:	c55fd0ef          	jal	ra,2804 <DMA_ClearFlag>
    4bb4:	400207b7          	lui	a5,0x40020
    4bb8:	03078793          	addi	a5,a5,48 # 40020030 <_eusrstack+0x20018030>
    4bbc:	fea45703          	lhu	a4,-22(s0)
    4bc0:	c3d8                	sw	a4,4(a5)
    4bc2:	400207b7          	lui	a5,0x40020
    4bc6:	07f1                	addi	a5,a5,28
    4bc8:	fec42703          	lw	a4,-20(s0)
    4bcc:	c7d8                	sw	a4,12(a5)
    4bce:	400207b7          	lui	a5,0x40020
    4bd2:	07f1                	addi	a5,a5,28
    4bd4:	fea45703          	lhu	a4,-22(s0)
    4bd8:	c3d8                	sw	a4,4(a5)
    4bda:	4585                	li	a1,1
    4bdc:	400207b7          	lui	a5,0x40020
    4be0:	03078513          	addi	a0,a5,48 # 40020030 <_eusrstack+0x20018030>
    4be4:	b47fd0ef          	jal	ra,272a <DMA_Cmd>
    4be8:	4585                	li	a1,1
    4bea:	400207b7          	lui	a5,0x40020
    4bee:	01c78513          	addi	a0,a5,28 # 4002001c <_eusrstack+0x2001801c>
    4bf2:	b39fd0ef          	jal	ra,272a <DMA_Cmd>
    4bf6:	0001                	nop
    4bf8:	40f2                	lw	ra,28(sp)
    4bfa:	4462                	lw	s0,24(sp)
    4bfc:	6105                	addi	sp,sp,32
    4bfe:	8082                	ret

00004c00 <SPI2_Init>:
    4c00:	7179                	addi	sp,sp,-48
    4c02:	d606                	sw	ra,44(sp)
    4c04:	d422                	sw	s0,40(sp)
    4c06:	1800                	addi	s0,sp,48
    4c08:	fe042223          	sw	zero,-28(s0)
    4c0c:	fe042423          	sw	zero,-24(s0)
    4c10:	fe042623          	sw	zero,-20(s0)
    4c14:	fc042823          	sw	zero,-48(s0)
    4c18:	fc042a23          	sw	zero,-44(s0)
    4c1c:	fc042c23          	sw	zero,-40(s0)
    4c20:	fc042e23          	sw	zero,-36(s0)
    4c24:	fe041023          	sh	zero,-32(s0)
    4c28:	4585                	li	a1,1
    4c2a:	4531                	li	a0,12
    4c2c:	979fe0ef          	jal	ra,35a4 <RCC_APB2PeriphClockCmd>
    4c30:	4585                	li	a1,1
    4c32:	6511                	lui	a0,0x4
    4c34:	9b7fe0ef          	jal	ra,35ea <RCC_APB1PeriphClockCmd>
    4c38:	6789                	lui	a5,0x2
    4c3a:	fef41223          	sh	a5,-28(s0)
    4c3e:	47e1                	li	a5,24
    4c40:	fef42623          	sw	a5,-20(s0)
    4c44:	478d                	li	a5,3
    4c46:	fef42423          	sw	a5,-24(s0)
    4c4a:	fe440793          	addi	a5,s0,-28
    4c4e:	85be                	mv	a1,a5
    4c50:	400117b7          	lui	a5,0x40011
    4c54:	c0078513          	addi	a0,a5,-1024 # 40010c00 <_eusrstack+0x20008c00>
    4c58:	e3ffd0ef          	jal	ra,2a96 <GPIO_Init>
    4c5c:	6791                	lui	a5,0x4
    4c5e:	fef41223          	sh	a5,-28(s0)
    4c62:	4791                	li	a5,4
    4c64:	fef42623          	sw	a5,-20(s0)
    4c68:	fe440793          	addi	a5,s0,-28
    4c6c:	85be                	mv	a1,a5
    4c6e:	400117b7          	lui	a5,0x40011
    4c72:	c0078513          	addi	a0,a5,-1024 # 40010c00 <_eusrstack+0x20008c00>
    4c76:	e21fd0ef          	jal	ra,2a96 <GPIO_Init>
    4c7a:	77e1                	lui	a5,0xffff8
    4c7c:	fef41223          	sh	a5,-28(s0)
    4c80:	47e1                	li	a5,24
    4c82:	fef42623          	sw	a5,-20(s0)
    4c86:	478d                	li	a5,3
    4c88:	fef42423          	sw	a5,-24(s0)
    4c8c:	fe440793          	addi	a5,s0,-28
    4c90:	85be                	mv	a1,a5
    4c92:	400117b7          	lui	a5,0x40011
    4c96:	c0078513          	addi	a0,a5,-1024 # 40010c00 <_eusrstack+0x20008c00>
    4c9a:	dfdfd0ef          	jal	ra,2a96 <GPIO_Init>
    4c9e:	77f1                	lui	a5,0xffffc
    4ca0:	fcf41823          	sh	a5,-48(s0)
    4ca4:	10400793          	li	a5,260
    4ca8:	fcf41923          	sh	a5,-46(s0)
    4cac:	fc041a23          	sh	zero,-44(s0)
    4cb0:	fc041b23          	sh	zero,-42(s0)
    4cb4:	fc041c23          	sh	zero,-40(s0)
    4cb8:	20000793          	li	a5,512
    4cbc:	fcf41d23          	sh	a5,-38(s0)
    4cc0:	fc041e23          	sh	zero,-36(s0)
    4cc4:	fc041f23          	sh	zero,-34(s0)
    4cc8:	479d                	li	a5,7
    4cca:	fef41023          	sh	a5,-32(s0)
    4cce:	fd040793          	addi	a5,s0,-48
    4cd2:	85be                	mv	a1,a5
    4cd4:	400047b7          	lui	a5,0x40004
    4cd8:	80078513          	addi	a0,a5,-2048 # 40003800 <_eusrstack+0x1fffb800>
    4cdc:	a87fe0ef          	jal	ra,3762 <SPI_Init>
    4ce0:	4585                	li	a1,1
    4ce2:	400047b7          	lui	a5,0x40004
    4ce6:	80078513          	addi	a0,a5,-2048 # 40003800 <_eusrstack+0x1fffb800>
    4cea:	b55fe0ef          	jal	ra,383e <SPI_Cmd>
    4cee:	0001                	nop
    4cf0:	50b2                	lw	ra,44(sp)
    4cf2:	5422                	lw	s0,40(sp)
    4cf4:	6145                	addi	sp,sp,48
    4cf6:	8082                	ret

00004cf8 <SPI2_DMA_Init>:
    4cf8:	7139                	addi	sp,sp,-64
    4cfa:	de06                	sw	ra,60(sp)
    4cfc:	dc22                	sw	s0,56(sp)
    4cfe:	0080                	addi	s0,sp,64
    4d00:	fc042223          	sw	zero,-60(s0)
    4d04:	fc042423          	sw	zero,-56(s0)
    4d08:	fc042623          	sw	zero,-52(s0)
    4d0c:	fc042823          	sw	zero,-48(s0)
    4d10:	fc042a23          	sw	zero,-44(s0)
    4d14:	fc042c23          	sw	zero,-40(s0)
    4d18:	fc042e23          	sw	zero,-36(s0)
    4d1c:	fe042023          	sw	zero,-32(s0)
    4d20:	fe042223          	sw	zero,-28(s0)
    4d24:	fe042423          	sw	zero,-24(s0)
    4d28:	fe042623          	sw	zero,-20(s0)
    4d2c:	4585                	li	a1,1
    4d2e:	4505                	li	a0,1
    4d30:	82ffe0ef          	jal	ra,355e <RCC_AHBPeriphClockCmd>
    4d34:	400207b7          	lui	a5,0x40020
    4d38:	05878513          	addi	a0,a5,88 # 40020058 <_eusrstack+0x20018058>
    4d3c:	e34fd0ef          	jal	ra,2370 <DMA_DeInit>
    4d40:	400047b7          	lui	a5,0x40004
    4d44:	80c78793          	addi	a5,a5,-2036 # 4000380c <_eusrstack+0x1fffb80c>
    4d48:	fcf42223          	sw	a5,-60(s0)
    4d4c:	fc042423          	sw	zero,-56(s0)
    4d50:	47c1                	li	a5,16
    4d52:	fcf42623          	sw	a5,-52(s0)
    4d56:	fc042823          	sw	zero,-48(s0)
    4d5a:	fc042a23          	sw	zero,-44(s0)
    4d5e:	08000793          	li	a5,128
    4d62:	fcf42c23          	sw	a5,-40(s0)
    4d66:	fc042e23          	sw	zero,-36(s0)
    4d6a:	fe042023          	sw	zero,-32(s0)
    4d6e:	fe042223          	sw	zero,-28(s0)
    4d72:	6789                	lui	a5,0x2
    4d74:	fef42423          	sw	a5,-24(s0)
    4d78:	fe042623          	sw	zero,-20(s0)
    4d7c:	fc440793          	addi	a5,s0,-60
    4d80:	85be                	mv	a1,a5
    4d82:	400207b7          	lui	a5,0x40020
    4d86:	05878513          	addi	a0,a5,88 # 40020058 <_eusrstack+0x20018058>
    4d8a:	8f9fd0ef          	jal	ra,2682 <DMA_Init>
    4d8e:	4605                	li	a2,1
    4d90:	4589                	li	a1,2
    4d92:	400047b7          	lui	a5,0x40004
    4d96:	80078513          	addi	a0,a5,-2048 # 40003800 <_eusrstack+0x1fffb800>
    4d9a:	af7fe0ef          	jal	ra,3890 <SPI_I2S_DMACmd>
    4d9e:	0001                	nop
    4da0:	50f2                	lw	ra,60(sp)
    4da2:	5462                	lw	s0,56(sp)
    4da4:	6121                	addi	sp,sp,64
    4da6:	8082                	ret

00004da8 <SPI2_Write>:
    4da8:	1101                	addi	sp,sp,-32
    4daa:	ce06                	sw	ra,28(sp)
    4dac:	cc22                	sw	s0,24(sp)
    4dae:	1000                	addi	s0,sp,32
    4db0:	87aa                	mv	a5,a0
    4db2:	fef407a3          	sb	a5,-17(s0)
    4db6:	0001                	nop
    4db8:	4589                	li	a1,2
    4dba:	400047b7          	lui	a5,0x40004
    4dbe:	80078513          	addi	a0,a5,-2048 # 40003800 <_eusrstack+0x1fffb800>
    4dc2:	b75fe0ef          	jal	ra,3936 <SPI_I2S_GetFlagStatus>
    4dc6:	87aa                	mv	a5,a0
    4dc8:	dbe5                	beqz	a5,4db8 <SPI2_Write+0x10>
    4dca:	fef44783          	lbu	a5,-17(s0)
    4dce:	07c2                	slli	a5,a5,0x10
    4dd0:	83c1                	srli	a5,a5,0x10
    4dd2:	85be                	mv	a1,a5
    4dd4:	400047b7          	lui	a5,0x40004
    4dd8:	80078513          	addi	a0,a5,-2048 # 40003800 <_eusrstack+0x1fffb800>
    4ddc:	b1dfe0ef          	jal	ra,38f8 <SPI_I2S_SendData>
    4de0:	0001                	nop
    4de2:	08000593          	li	a1,128
    4de6:	400047b7          	lui	a5,0x40004
    4dea:	80078513          	addi	a0,a5,-2048 # 40003800 <_eusrstack+0x1fffb800>
    4dee:	b49fe0ef          	jal	ra,3936 <SPI_I2S_GetFlagStatus>
    4df2:	872a                	mv	a4,a0
    4df4:	4785                	li	a5,1
    4df6:	fef706e3          	beq	a4,a5,4de2 <SPI2_Write+0x3a>
    4dfa:	0001                	nop
    4dfc:	40f2                	lw	ra,28(sp)
    4dfe:	4462                	lw	s0,24(sp)
    4e00:	6105                	addi	sp,sp,32
    4e02:	8082                	ret

00004e04 <SPI2_Write_DMA>:
    4e04:	1101                	addi	sp,sp,-32
    4e06:	ce06                	sw	ra,28(sp)
    4e08:	cc22                	sw	s0,24(sp)
    4e0a:	1000                	addi	s0,sp,32
    4e0c:	fea42623          	sw	a0,-20(s0)
    4e10:	87ae                	mv	a5,a1
    4e12:	fef41523          	sh	a5,-22(s0)
    4e16:	0001                	nop
    4e18:	08000593          	li	a1,128
    4e1c:	400047b7          	lui	a5,0x40004
    4e20:	80078513          	addi	a0,a5,-2048 # 40003800 <_eusrstack+0x1fffb800>
    4e24:	b13fe0ef          	jal	ra,3936 <SPI_I2S_GetFlagStatus>
    4e28:	872a                	mv	a4,a0
    4e2a:	4785                	li	a5,1
    4e2c:	fef706e3          	beq	a4,a5,4e18 <SPI2_Write_DMA+0x14>
    4e30:	4581                	li	a1,0
    4e32:	400207b7          	lui	a5,0x40020
    4e36:	05878513          	addi	a0,a5,88 # 40020058 <_eusrstack+0x20018058>
    4e3a:	8f1fd0ef          	jal	ra,272a <DMA_Cmd>
    4e3e:	00020537          	lui	a0,0x20
    4e42:	9c3fd0ef          	jal	ra,2804 <DMA_ClearFlag>
    4e46:	400207b7          	lui	a5,0x40020
    4e4a:	05878793          	addi	a5,a5,88 # 40020058 <_eusrstack+0x20018058>
    4e4e:	fec42703          	lw	a4,-20(s0)
    4e52:	c7d8                	sw	a4,12(a5)
    4e54:	400207b7          	lui	a5,0x40020
    4e58:	05878793          	addi	a5,a5,88 # 40020058 <_eusrstack+0x20018058>
    4e5c:	fea45703          	lhu	a4,-22(s0)
    4e60:	c3d8                	sw	a4,4(a5)
    4e62:	4585                	li	a1,1
    4e64:	400207b7          	lui	a5,0x40020
    4e68:	05878513          	addi	a0,a5,88 # 40020058 <_eusrstack+0x20018058>
    4e6c:	8bffd0ef          	jal	ra,272a <DMA_Cmd>
    4e70:	0001                	nop
    4e72:	40f2                	lw	ra,28(sp)
    4e74:	4462                	lw	s0,24(sp)
    4e76:	6105                	addi	sp,sp,32
    4e78:	8082                	ret

00004e7a <WS2812_Init>:
    4e7a:	7159                	addi	sp,sp,-112
    4e7c:	d686                	sw	ra,108(sp)
    4e7e:	d4a2                	sw	s0,104(sp)
    4e80:	1880                	addi	s0,sp,112
    4e82:	fe042223          	sw	zero,-28(s0)
    4e86:	fe042423          	sw	zero,-24(s0)
    4e8a:	fe042623          	sw	zero,-20(s0)
    4e8e:	fc042c23          	sw	zero,-40(s0)
    4e92:	fc042e23          	sw	zero,-36(s0)
    4e96:	fe041023          	sh	zero,-32(s0)
    4e9a:	fc042423          	sw	zero,-56(s0)
    4e9e:	fc042623          	sw	zero,-52(s0)
    4ea2:	fc042823          	sw	zero,-48(s0)
    4ea6:	fc042a23          	sw	zero,-44(s0)
    4eaa:	f8042e23          	sw	zero,-100(s0)
    4eae:	fa042023          	sw	zero,-96(s0)
    4eb2:	fa042223          	sw	zero,-92(s0)
    4eb6:	fa042423          	sw	zero,-88(s0)
    4eba:	fa042623          	sw	zero,-84(s0)
    4ebe:	fa042823          	sw	zero,-80(s0)
    4ec2:	fa042a23          	sw	zero,-76(s0)
    4ec6:	fa042c23          	sw	zero,-72(s0)
    4eca:	fa042e23          	sw	zero,-68(s0)
    4ece:	fc042023          	sw	zero,-64(s0)
    4ed2:	fc042223          	sw	zero,-60(s0)
    4ed6:	4585                	li	a1,1
    4ed8:	4509                	li	a0,2
    4eda:	e84fe0ef          	jal	ra,355e <RCC_AHBPeriphClockCmd>
    4ede:	4585                	li	a1,1
    4ee0:	001007b7          	lui	a5,0x100
    4ee4:	00978513          	addi	a0,a5,9 # 100009 <_data_lma+0xfa8e5>
    4ee8:	ebcfe0ef          	jal	ra,35a4 <RCC_APB2PeriphClockCmd>
    4eec:	4585                	li	a1,1
    4eee:	801507b7          	lui	a5,0x80150
    4ef2:	02078513          	addi	a0,a5,32 # 80150020 <_eusrstack+0x60148020>
    4ef6:	e41fd0ef          	jal	ra,2d36 <GPIO_PinRemapConfig>
    4efa:	02000793          	li	a5,32
    4efe:	fef41223          	sh	a5,-28(s0)
    4f02:	47e1                	li	a5,24
    4f04:	fef42623          	sw	a5,-20(s0)
    4f08:	478d                	li	a5,3
    4f0a:	fef42423          	sw	a5,-24(s0)
    4f0e:	fe440793          	addi	a5,s0,-28
    4f12:	85be                	mv	a1,a5
    4f14:	400117b7          	lui	a5,0x40011
    4f18:	c0078513          	addi	a0,a5,-1024 # 40010c00 <_eusrstack+0x20008c00>
    4f1c:	b7bfd0ef          	jal	ra,2a96 <GPIO_Init>
    4f20:	fc041d23          	sh	zero,-38(s0)
    4f24:	05900793          	li	a5,89
    4f28:	fcf41e23          	sh	a5,-36(s0)
    4f2c:	fc041c23          	sh	zero,-40(s0)
    4f30:	fd840793          	addi	a5,s0,-40
    4f34:	85be                	mv	a1,a5
    4f36:	40015537          	lui	a0,0x40015
    4f3a:	a41fe0ef          	jal	ra,397a <TIM_TimeBaseInit>
    4f3e:	06000793          	li	a5,96
    4f42:	fcf41423          	sh	a5,-56(s0)
    4f46:	4785                	li	a5,1
    4f48:	fcf41523          	sh	a5,-54(s0)
    4f4c:	fc041823          	sh	zero,-48(s0)
    4f50:	fc041723          	sh	zero,-50(s0)
    4f54:	fc840793          	addi	a5,s0,-56
    4f58:	85be                	mv	a1,a5
    4f5a:	40015537          	lui	a0,0x40015
    4f5e:	b85fe0ef          	jal	ra,3ae2 <TIM_OC3Init>
    4f62:	400207b7          	lui	a5,0x40020
    4f66:	4c078513          	addi	a0,a5,1216 # 400204c0 <_eusrstack+0x200184c0>
    4f6a:	c06fd0ef          	jal	ra,2370 <DMA_DeInit>
    4f6e:	400157b7          	lui	a5,0x40015
    4f72:	03c78793          	addi	a5,a5,60 # 4001503c <_eusrstack+0x2000d03c>
    4f76:	f8f42e23          	sw	a5,-100(s0)
    4f7a:	47c1                	li	a5,16
    4f7c:	faf42223          	sw	a5,-92(s0)
    4f80:	fa042623          	sw	zero,-84(s0)
    4f84:	08000793          	li	a5,128
    4f88:	faf42823          	sw	a5,-80(s0)
    4f8c:	10000793          	li	a5,256
    4f90:	faf42a23          	sw	a5,-76(s0)
    4f94:	40000793          	li	a5,1024
    4f98:	faf42c23          	sw	a5,-72(s0)
    4f9c:	fa042e23          	sw	zero,-68(s0)
    4fa0:	678d                	lui	a5,0x3
    4fa2:	fcf42023          	sw	a5,-64(s0)
    4fa6:	fc042223          	sw	zero,-60(s0)
    4faa:	f9c40793          	addi	a5,s0,-100
    4fae:	85be                	mv	a1,a5
    4fb0:	400207b7          	lui	a5,0x40020
    4fb4:	4c078513          	addi	a0,a5,1216 # 400204c0 <_eusrstack+0x200184c0>
    4fb8:	ecafd0ef          	jal	ra,2682 <DMA_Init>
    4fbc:	4605                	li	a2,1
    4fbe:	10000593          	li	a1,256
    4fc2:	40015537          	lui	a0,0x40015
    4fc6:	deffe0ef          	jal	ra,3db4 <TIM_DMACmd>
    4fca:	4585                	li	a1,1
    4fcc:	40015537          	lui	a0,0x40015
    4fd0:	d1dfe0ef          	jal	ra,3cec <TIM_CtrlPWMOutputs>
    4fd4:	0001                	nop
    4fd6:	50b6                	lw	ra,108(sp)
    4fd8:	5426                	lw	s0,104(sp)
    4fda:	6165                	addi	sp,sp,112
    4fdc:	8082                	ret

00004fde <WS2812_Reset>:
    4fde:	1141                	addi	sp,sp,-16
    4fe0:	c606                	sw	ra,12(sp)
    4fe2:	c422                	sw	s0,8(sp)
    4fe4:	0800                	addi	s0,sp,16
    4fe6:	12c00513          	li	a0,300
    4fea:	26bd                	jal	5358 <Delay_Us>
    4fec:	0001                	nop
    4fee:	40b2                	lw	ra,12(sp)
    4ff0:	4422                	lw	s0,8(sp)
    4ff2:	0141                	addi	sp,sp,16
    4ff4:	8082                	ret

00004ff6 <WS2812_SendData>:
    4ff6:	7179                	addi	sp,sp,-48
    4ff8:	d606                	sw	ra,44(sp)
    4ffa:	d422                	sw	s0,40(sp)
    4ffc:	d226                	sw	s1,36(sp)
    4ffe:	1800                	addi	s0,sp,48
    5000:	fca42e23          	sw	a0,-36(s0)
    5004:	850a                	mv	a0,sp
    5006:	84aa                	mv	s1,a0
    5008:	fe041723          	sh	zero,-18(s0)
    500c:	77000513          	li	a0,1904
    5010:	fea41423          	sh	a0,-24(s0)
    5014:	fe845503          	lhu	a0,-24(s0)
    5018:	88aa                	mv	a7,a0
    501a:	18fd                	addi	a7,a7,-1
    501c:	ff142223          	sw	a7,-28(s0)
    5020:	832a                	mv	t1,a0
    5022:	4381                	li	t2,0
    5024:	01c35893          	srli	a7,t1,0x1c
    5028:	00439713          	slli	a4,t2,0x4
    502c:	00e8e733          	or	a4,a7,a4
    5030:	00431693          	slli	a3,t1,0x4
    5034:	85aa                	mv	a1,a0
    5036:	4601                	li	a2,0
    5038:	01c5d713          	srli	a4,a1,0x1c
    503c:	00461813          	slli	a6,a2,0x4
    5040:	01076833          	or	a6,a4,a6
    5044:	00459793          	slli	a5,a1,0x4
    5048:	87aa                	mv	a5,a0
    504a:	0786                	slli	a5,a5,0x1
    504c:	07bd                	addi	a5,a5,15
    504e:	8391                	srli	a5,a5,0x4
    5050:	0792                	slli	a5,a5,0x4
    5052:	40f10133          	sub	sp,sp,a5
    5056:	878a                	mv	a5,sp
    5058:	0785                	addi	a5,a5,1
    505a:	8385                	srli	a5,a5,0x1
    505c:	0786                	slli	a5,a5,0x1
    505e:	fef42023          	sw	a5,-32(s0)
    5062:	f7dff0ef          	jal	ra,4fde <WS2812_Reset>
    5066:	fe041523          	sh	zero,-22(s0)
    506a:	aa21                	j	5182 <WS2812_SendData+0x18c>
    506c:	47a1                	li	a5,8
    506e:	fef41623          	sh	a5,-20(s0)
    5072:	a0a9                	j	50bc <WS2812_SendData+0xc6>
    5074:	fea45783          	lhu	a5,-22(s0)
    5078:	078a                	slli	a5,a5,0x2
    507a:	fdc42703          	lw	a4,-36(s0)
    507e:	97ba                	add	a5,a5,a4
    5080:	4398                	lw	a4,0(a5)
    5082:	fec45783          	lhu	a5,-20(s0)
    5086:	00f71733          	sll	a4,a4,a5
    508a:	008007b7          	lui	a5,0x800
    508e:	8ff9                	and	a5,a5,a4
    5090:	c781                	beqz	a5,5098 <WS2812_SendData+0xa2>
    5092:	03d00793          	li	a5,61
    5096:	a011                	j	509a <WS2812_SendData+0xa4>
    5098:	47f5                	li	a5,29
    509a:	fee45703          	lhu	a4,-18(s0)
    509e:	fe042683          	lw	a3,-32(s0)
    50a2:	0706                	slli	a4,a4,0x1
    50a4:	9736                	add	a4,a4,a3
    50a6:	a31e                	sh	a5,0(a4)
    50a8:	fee45783          	lhu	a5,-18(s0)
    50ac:	0785                	addi	a5,a5,1
    50ae:	fef41723          	sh	a5,-18(s0)
    50b2:	fec45783          	lhu	a5,-20(s0)
    50b6:	0785                	addi	a5,a5,1
    50b8:	fef41623          	sh	a5,-20(s0)
    50bc:	fec45703          	lhu	a4,-20(s0)
    50c0:	47bd                	li	a5,15
    50c2:	fae7f9e3          	bgeu	a5,a4,5074 <WS2812_SendData+0x7e>
    50c6:	fe041623          	sh	zero,-20(s0)
    50ca:	a0a9                	j	5114 <WS2812_SendData+0x11e>
    50cc:	fea45783          	lhu	a5,-22(s0)
    50d0:	078a                	slli	a5,a5,0x2
    50d2:	fdc42703          	lw	a4,-36(s0)
    50d6:	97ba                	add	a5,a5,a4
    50d8:	4398                	lw	a4,0(a5)
    50da:	fec45783          	lhu	a5,-20(s0)
    50de:	00f71733          	sll	a4,a4,a5
    50e2:	008007b7          	lui	a5,0x800
    50e6:	8ff9                	and	a5,a5,a4
    50e8:	c781                	beqz	a5,50f0 <WS2812_SendData+0xfa>
    50ea:	03d00793          	li	a5,61
    50ee:	a011                	j	50f2 <WS2812_SendData+0xfc>
    50f0:	47f5                	li	a5,29
    50f2:	fee45703          	lhu	a4,-18(s0)
    50f6:	fe042683          	lw	a3,-32(s0)
    50fa:	0706                	slli	a4,a4,0x1
    50fc:	9736                	add	a4,a4,a3
    50fe:	a31e                	sh	a5,0(a4)
    5100:	fee45783          	lhu	a5,-18(s0)
    5104:	0785                	addi	a5,a5,1
    5106:	fef41723          	sh	a5,-18(s0)
    510a:	fec45783          	lhu	a5,-20(s0)
    510e:	0785                	addi	a5,a5,1
    5110:	fef41623          	sh	a5,-20(s0)
    5114:	fec45703          	lhu	a4,-20(s0)
    5118:	479d                	li	a5,7
    511a:	fae7f9e3          	bgeu	a5,a4,50cc <WS2812_SendData+0xd6>
    511e:	47c1                	li	a5,16
    5120:	fef41623          	sh	a5,-20(s0)
    5124:	a0a9                	j	516e <WS2812_SendData+0x178>
    5126:	fea45783          	lhu	a5,-22(s0)
    512a:	078a                	slli	a5,a5,0x2
    512c:	fdc42703          	lw	a4,-36(s0)
    5130:	97ba                	add	a5,a5,a4
    5132:	4398                	lw	a4,0(a5)
    5134:	fec45783          	lhu	a5,-20(s0)
    5138:	00f71733          	sll	a4,a4,a5
    513c:	008007b7          	lui	a5,0x800
    5140:	8ff9                	and	a5,a5,a4
    5142:	c781                	beqz	a5,514a <WS2812_SendData+0x154>
    5144:	03d00793          	li	a5,61
    5148:	a011                	j	514c <WS2812_SendData+0x156>
    514a:	47f5                	li	a5,29
    514c:	fee45703          	lhu	a4,-18(s0)
    5150:	fe042683          	lw	a3,-32(s0)
    5154:	0706                	slli	a4,a4,0x1
    5156:	9736                	add	a4,a4,a3
    5158:	a31e                	sh	a5,0(a4)
    515a:	fee45783          	lhu	a5,-18(s0)
    515e:	0785                	addi	a5,a5,1
    5160:	fef41723          	sh	a5,-18(s0)
    5164:	fec45783          	lhu	a5,-20(s0)
    5168:	0785                	addi	a5,a5,1
    516a:	fef41623          	sh	a5,-20(s0)
    516e:	fec45703          	lhu	a4,-20(s0)
    5172:	47dd                	li	a5,23
    5174:	fae7f9e3          	bgeu	a5,a4,5126 <WS2812_SendData+0x130>
    5178:	fea45783          	lhu	a5,-22(s0)
    517c:	0785                	addi	a5,a5,1
    517e:	fef41523          	sh	a5,-22(s0)
    5182:	fea45703          	lhu	a4,-22(s0)
    5186:	04e00793          	li	a5,78
    518a:	eee7f1e3          	bgeu	a5,a4,506c <WS2812_SendData+0x76>
    518e:	fe041623          	sh	zero,-20(s0)
    5192:	a01d                	j	51b8 <WS2812_SendData+0x1c2>
    5194:	fee45783          	lhu	a5,-18(s0)
    5198:	fe042703          	lw	a4,-32(s0)
    519c:	0786                	slli	a5,a5,0x1
    519e:	97ba                	add	a5,a5,a4
    51a0:	00079023          	sh	zero,0(a5) # 800000 <_data_lma+0x7fa8dc>
    51a4:	fee45783          	lhu	a5,-18(s0)
    51a8:	0785                	addi	a5,a5,1
    51aa:	fef41723          	sh	a5,-18(s0)
    51ae:	fec45783          	lhu	a5,-20(s0)
    51b2:	0785                	addi	a5,a5,1
    51b4:	fef41623          	sh	a5,-20(s0)
    51b8:	fec45703          	lhu	a4,-20(s0)
    51bc:	479d                	li	a5,7
    51be:	fce7fbe3          	bgeu	a5,a4,5194 <WS2812_SendData+0x19e>
    51c2:	4581                	li	a1,0
    51c4:	400207b7          	lui	a5,0x40020
    51c8:	4c078513          	addi	a0,a5,1216 # 400204c0 <_eusrstack+0x200184c0>
    51cc:	d5efd0ef          	jal	ra,272a <DMA_Cmd>
    51d0:	fe042703          	lw	a4,-32(s0)
    51d4:	400207b7          	lui	a5,0x40020
    51d8:	4c078793          	addi	a5,a5,1216 # 400204c0 <_eusrstack+0x200184c0>
    51dc:	c7d8                	sw	a4,12(a5)
    51de:	fe845783          	lhu	a5,-24(s0)
    51e2:	85be                	mv	a1,a5
    51e4:	400207b7          	lui	a5,0x40020
    51e8:	4c078513          	addi	a0,a5,1216 # 400204c0 <_eusrstack+0x200184c0>
    51ec:	d7efd0ef          	jal	ra,276a <DMA_SetCurrDataCounter>
    51f0:	4585                	li	a1,1
    51f2:	400207b7          	lui	a5,0x40020
    51f6:	4c078513          	addi	a0,a5,1216 # 400204c0 <_eusrstack+0x200184c0>
    51fa:	d30fd0ef          	jal	ra,272a <DMA_Cmd>
    51fe:	4585                	li	a1,1
    5200:	40015537          	lui	a0,0x40015
    5204:	a99fe0ef          	jal	ra,3c9c <TIM_Cmd>
    5208:	0001                	nop
    520a:	20002537          	lui	a0,0x20002
    520e:	d7efd0ef          	jal	ra,278c <DMA_GetFlagStatus>
    5212:	87aa                	mv	a5,a0
    5214:	dbfd                	beqz	a5,520a <WS2812_SendData+0x214>
    5216:	4581                	li	a1,0
    5218:	40015537          	lui	a0,0x40015
    521c:	a81fe0ef          	jal	ra,3c9c <TIM_Cmd>
    5220:	4581                	li	a1,0
    5222:	400207b7          	lui	a5,0x40020
    5226:	4c078513          	addi	a0,a5,1216 # 400204c0 <_eusrstack+0x200184c0>
    522a:	d00fd0ef          	jal	ra,272a <DMA_Cmd>
    522e:	20002537          	lui	a0,0x20002
    5232:	dd2fd0ef          	jal	ra,2804 <DMA_ClearFlag>
    5236:	8126                	mv	sp,s1
    5238:	0001                	nop
    523a:	fd040113          	addi	sp,s0,-48
    523e:	50b2                	lw	ra,44(sp)
    5240:	5422                	lw	s0,40(sp)
    5242:	5492                	lw	s1,36(sp)
    5244:	6145                	addi	sp,sp,48
    5246:	8082                	ret

00005248 <fill_color>:
    5248:	7179                	addi	sp,sp,-48
    524a:	d622                	sw	s0,44(sp)
    524c:	1800                	addi	s0,sp,48
    524e:	fca42e23          	sw	a0,-36(s0)
    5252:	fe042623          	sw	zero,-20(s0)
    5256:	a00d                	j	5278 <fill_color+0x30>
    5258:	fec42783          	lw	a5,-20(s0)
    525c:	078a                	slli	a5,a5,0x2
    525e:	fdc42703          	lw	a4,-36(s0)
    5262:	97ba                	add	a5,a5,a4
    5264:	00330737          	lui	a4,0x330
    5268:	03370713          	addi	a4,a4,51 # 330033 <_data_lma+0x32a90f>
    526c:	c398                	sw	a4,0(a5)
    526e:	fec42783          	lw	a5,-20(s0)
    5272:	0785                	addi	a5,a5,1
    5274:	fef42623          	sw	a5,-20(s0)
    5278:	fec42703          	lw	a4,-20(s0)
    527c:	4795                	li	a5,5
    527e:	fce7dde3          	bge	a5,a4,5258 <fill_color+0x10>
    5282:	0001                	nop
    5284:	5432                	lw	s0,44(sp)
    5286:	6145                	addi	sp,sp,48
    5288:	8082                	ret

0000528a <System_Init>:
    528a:	1141                	addi	sp,sp,-16
    528c:	c606                	sw	ra,12(sp)
    528e:	c422                	sw	s0,8(sp)
    5290:	0800                	addi	s0,sp,16
    5292:	200007b7          	lui	a5,0x20000
    5296:	08c78513          	addi	a0,a5,140 # 2000008c <color1>
    529a:	fafff0ef          	jal	ra,5248 <fill_color>
    529e:	bddff0ef          	jal	ra,4e7a <WS2812_Init>
    52a2:	0001                	nop
    52a4:	40b2                	lw	ra,12(sp)
    52a6:	4422                	lw	s0,8(sp)
    52a8:	0141                	addi	sp,sp,16
    52aa:	8082                	ret

000052ac <System_1>:
    52ac:	1141                	addi	sp,sp,-16
    52ae:	c606                	sw	ra,12(sp)
    52b0:	c422                	sw	s0,8(sp)
    52b2:	0800                	addi	s0,sp,16
    52b4:	200007b7          	lui	a5,0x20000
    52b8:	08c78513          	addi	a0,a5,140 # 2000008c <color1>
    52bc:	d3bff0ef          	jal	ra,4ff6 <WS2812_SendData>
    52c0:	0001                	nop
    52c2:	40b2                	lw	ra,12(sp)
    52c4:	4422                	lw	s0,8(sp)
    52c6:	0141                	addi	sp,sp,16
    52c8:	8082                	ret

000052ca <System_Loop>:
    52ca:	1141                	addi	sp,sp,-16
    52cc:	c606                	sw	ra,12(sp)
    52ce:	c422                	sw	s0,8(sp)
    52d0:	0800                	addi	s0,sp,16
    52d2:	200007b7          	lui	a5,0x20000
    52d6:	08c78513          	addi	a0,a5,140 # 2000008c <color1>
    52da:	d1dff0ef          	jal	ra,4ff6 <WS2812_SendData>
    52de:	0c800513          	li	a0,200
    52e2:	28ed                	jal	53dc <Delay_Ms>
    52e4:	200007b7          	lui	a5,0x20000
    52e8:	1c878513          	addi	a0,a5,456 # 200001c8 <color2>
    52ec:	d0bff0ef          	jal	ra,4ff6 <WS2812_SendData>
    52f0:	0c800513          	li	a0,200
    52f4:	20e5                	jal	53dc <Delay_Ms>
    52f6:	200007b7          	lui	a5,0x20000
    52fa:	30478513          	addi	a0,a5,772 # 20000304 <color3>
    52fe:	cf9ff0ef          	jal	ra,4ff6 <WS2812_SendData>
    5302:	0c800513          	li	a0,200
    5306:	28d9                	jal	53dc <Delay_Ms>
    5308:	0001                	nop
    530a:	40b2                	lw	ra,12(sp)
    530c:	4422                	lw	s0,8(sp)
    530e:	0141                	addi	sp,sp,16
    5310:	8082                	ret

00005312 <Delay_Init>:
    5312:	1141                	addi	sp,sp,-16
    5314:	c622                	sw	s0,12(sp)
    5316:	0800                	addi	s0,sp,16
    5318:	200007b7          	lui	a5,0x20000
    531c:	4407a703          	lw	a4,1088(a5) # 20000440 <SystemCoreClock>
    5320:	007a17b7          	lui	a5,0x7a1
    5324:	20078793          	addi	a5,a5,512 # 7a1200 <_data_lma+0x79badc>
    5328:	02f757b3          	divu	a5,a4,a5
    532c:	0ff7f713          	andi	a4,a5,255
    5330:	84e18a23          	sb	a4,-1964(gp) # 20000494 <p_us>
    5334:	8541c783          	lbu	a5,-1964(gp) # 20000494 <p_us>
    5338:	01079713          	slli	a4,a5,0x10
    533c:	8341                	srli	a4,a4,0x10
    533e:	3e800793          	li	a5,1000
    5342:	02f707b3          	mul	a5,a4,a5
    5346:	01079713          	slli	a4,a5,0x10
    534a:	8341                	srli	a4,a4,0x10
    534c:	84e19b23          	sh	a4,-1962(gp) # 20000496 <p_ms>
    5350:	0001                	nop
    5352:	4432                	lw	s0,12(sp)
    5354:	0141                	addi	sp,sp,16
    5356:	8082                	ret

00005358 <Delay_Us>:
    5358:	7179                	addi	sp,sp,-48
    535a:	d622                	sw	s0,44(sp)
    535c:	1800                	addi	s0,sp,48
    535e:	fca42e23          	sw	a0,-36(s0)
    5362:	e000f737          	lui	a4,0xe000f
    5366:	4354                	lw	a3,4(a4)
    5368:	e000f737          	lui	a4,0xe000f
    536c:	9af9                	andi	a3,a3,-2
    536e:	c354                	sw	a3,4(a4)
    5370:	8541c703          	lbu	a4,-1964(gp) # 20000494 <p_us>
    5374:	86ba                	mv	a3,a4
    5376:	fdc42703          	lw	a4,-36(s0)
    537a:	02d70733          	mul	a4,a4,a3
    537e:	fee42623          	sw	a4,-20(s0)
    5382:	e000f737          	lui	a4,0xe000f
    5386:	fec42683          	lw	a3,-20(s0)
    538a:	87b6                	mv	a5,a3
    538c:	4801                	li	a6,0
    538e:	cb1c                	sw	a5,16(a4)
    5390:	01072a23          	sw	a6,20(a4) # e000f014 <_eusrstack+0xc0007014>
    5394:	e000f7b7          	lui	a5,0xe000f
    5398:	4398                	lw	a4,0(a5)
    539a:	e000f7b7          	lui	a5,0xe000f
    539e:	01076713          	ori	a4,a4,16
    53a2:	c398                	sw	a4,0(a5)
    53a4:	e000f7b7          	lui	a5,0xe000f
    53a8:	4398                	lw	a4,0(a5)
    53aa:	e000f7b7          	lui	a5,0xe000f
    53ae:	02176713          	ori	a4,a4,33
    53b2:	c398                	sw	a4,0(a5)
    53b4:	0001                	nop
    53b6:	e000f7b7          	lui	a5,0xe000f
    53ba:	43dc                	lw	a5,4(a5)
    53bc:	0017f713          	andi	a4,a5,1
    53c0:	4785                	li	a5,1
    53c2:	fef71ae3          	bne	a4,a5,53b6 <Delay_Us+0x5e>
    53c6:	e000f7b7          	lui	a5,0xe000f
    53ca:	4398                	lw	a4,0(a5)
    53cc:	e000f7b7          	lui	a5,0xe000f
    53d0:	9b79                	andi	a4,a4,-2
    53d2:	c398                	sw	a4,0(a5)
    53d4:	0001                	nop
    53d6:	5432                	lw	s0,44(sp)
    53d8:	6145                	addi	sp,sp,48
    53da:	8082                	ret

000053dc <Delay_Ms>:
    53dc:	7179                	addi	sp,sp,-48
    53de:	d622                	sw	s0,44(sp)
    53e0:	1800                	addi	s0,sp,48
    53e2:	fca42e23          	sw	a0,-36(s0)
    53e6:	e000f737          	lui	a4,0xe000f
    53ea:	4354                	lw	a3,4(a4)
    53ec:	e000f737          	lui	a4,0xe000f
    53f0:	9af9                	andi	a3,a3,-2
    53f2:	c354                	sw	a3,4(a4)
    53f4:	8561d703          	lhu	a4,-1962(gp) # 20000496 <p_ms>
    53f8:	86ba                	mv	a3,a4
    53fa:	fdc42703          	lw	a4,-36(s0)
    53fe:	02d70733          	mul	a4,a4,a3
    5402:	fee42623          	sw	a4,-20(s0)
    5406:	e000f737          	lui	a4,0xe000f
    540a:	fec42683          	lw	a3,-20(s0)
    540e:	87b6                	mv	a5,a3
    5410:	4801                	li	a6,0
    5412:	cb1c                	sw	a5,16(a4)
    5414:	01072a23          	sw	a6,20(a4) # e000f014 <_eusrstack+0xc0007014>
    5418:	e000f7b7          	lui	a5,0xe000f
    541c:	4398                	lw	a4,0(a5)
    541e:	e000f7b7          	lui	a5,0xe000f
    5422:	01076713          	ori	a4,a4,16
    5426:	c398                	sw	a4,0(a5)
    5428:	e000f7b7          	lui	a5,0xe000f
    542c:	4398                	lw	a4,0(a5)
    542e:	e000f7b7          	lui	a5,0xe000f
    5432:	02176713          	ori	a4,a4,33
    5436:	c398                	sw	a4,0(a5)
    5438:	0001                	nop
    543a:	e000f7b7          	lui	a5,0xe000f
    543e:	43dc                	lw	a5,4(a5)
    5440:	0017f713          	andi	a4,a5,1
    5444:	4785                	li	a5,1
    5446:	fef71ae3          	bne	a4,a5,543a <Delay_Ms+0x5e>
    544a:	e000f7b7          	lui	a5,0xe000f
    544e:	4398                	lw	a4,0(a5)
    5450:	e000f7b7          	lui	a5,0xe000f
    5454:	9b79                	andi	a4,a4,-2
    5456:	c398                	sw	a4,0(a5)
    5458:	0001                	nop
    545a:	5432                	lw	s0,44(sp)
    545c:	6145                	addi	sp,sp,48
    545e:	8082                	ret

00005460 <memcmp>:
    5460:	4701                	li	a4,0
    5462:	00e61463          	bne	a2,a4,546a <memcmp+0xa>
    5466:	4501                	li	a0,0
    5468:	8082                	ret
    546a:	00e507b3          	add	a5,a0,a4
    546e:	0705                	addi	a4,a4,1
    5470:	00e586b3          	add	a3,a1,a4
    5474:	239c                	lbu	a5,0(a5)
    5476:	fff6c683          	lbu	a3,-1(a3) # e000dfff <_eusrstack+0xc0005fff>
    547a:	fed784e3          	beq	a5,a3,5462 <memcmp+0x2>
    547e:	40d78533          	sub	a0,a5,a3
    5482:	8082                	ret

00005484 <memcpy>:
    5484:	00a5c7b3          	xor	a5,a1,a0
    5488:	8b8d                	andi	a5,a5,3
    548a:	00c50733          	add	a4,a0,a2
    548e:	e781                	bnez	a5,5496 <memcpy+0x12>
    5490:	478d                	li	a5,3
    5492:	00c7ed63          	bltu	a5,a2,54ac <memcpy+0x28>
    5496:	87aa                	mv	a5,a0
    5498:	08e57e63          	bgeu	a0,a4,5534 <memcpy+0xb0>
    549c:	2194                	lbu	a3,0(a1)
    549e:	0785                	addi	a5,a5,1
    54a0:	0585                	addi	a1,a1,1
    54a2:	fed78fa3          	sb	a3,-1(a5) # e000efff <_eusrstack+0xc0006fff>
    54a6:	fee7ebe3          	bltu	a5,a4,549c <memcpy+0x18>
    54aa:	8082                	ret
    54ac:	00357693          	andi	a3,a0,3
    54b0:	87aa                	mv	a5,a0
    54b2:	ca89                	beqz	a3,54c4 <memcpy+0x40>
    54b4:	2194                	lbu	a3,0(a1)
    54b6:	0785                	addi	a5,a5,1
    54b8:	0585                	addi	a1,a1,1
    54ba:	fed78fa3          	sb	a3,-1(a5)
    54be:	0037f693          	andi	a3,a5,3
    54c2:	bfc5                	j	54b2 <memcpy+0x2e>
    54c4:	ffc77693          	andi	a3,a4,-4
    54c8:	fe068613          	addi	a2,a3,-32
    54cc:	06c7f063          	bgeu	a5,a2,552c <memcpy+0xa8>
    54d0:	0005a383          	lw	t2,0(a1)
    54d4:	0045a283          	lw	t0,4(a1)
    54d8:	0085af83          	lw	t6,8(a1)
    54dc:	00c5af03          	lw	t5,12(a1)
    54e0:	0105ae83          	lw	t4,16(a1)
    54e4:	0145ae03          	lw	t3,20(a1)
    54e8:	0185a303          	lw	t1,24(a1)
    54ec:	01c5a883          	lw	a7,28(a1)
    54f0:	02458593          	addi	a1,a1,36
    54f4:	0077a023          	sw	t2,0(a5)
    54f8:	ffc5a803          	lw	a6,-4(a1)
    54fc:	0057a223          	sw	t0,4(a5)
    5500:	01f7a423          	sw	t6,8(a5)
    5504:	01e7a623          	sw	t5,12(a5)
    5508:	01d7a823          	sw	t4,16(a5)
    550c:	01c7aa23          	sw	t3,20(a5)
    5510:	0067ac23          	sw	t1,24(a5)
    5514:	0117ae23          	sw	a7,28(a5)
    5518:	02478793          	addi	a5,a5,36
    551c:	ff07ae23          	sw	a6,-4(a5)
    5520:	b775                	j	54cc <memcpy+0x48>
    5522:	4190                	lw	a2,0(a1)
    5524:	0791                	addi	a5,a5,4
    5526:	0591                	addi	a1,a1,4
    5528:	fec7ae23          	sw	a2,-4(a5)
    552c:	fed7ebe3          	bltu	a5,a3,5522 <memcpy+0x9e>
    5530:	f6e7e6e3          	bltu	a5,a4,549c <memcpy+0x18>
    5534:	8082                	ret
    5536:	0000                	unimp
    5538:	0ac6                	slli	s5,s5,0x11
    553a:	0000                	unimp
    553c:	0ac6                	slli	s5,s5,0x11
    553e:	0000                	unimp
    5540:	0a2e                	slli	s4,s4,0xb
    5542:	0000                	unimp
    5544:	0a7a                	slli	s4,s4,0x1e
    5546:	0000                	unimp
    5548:	0ac6                	slli	s5,s5,0x11
    554a:	0000                	unimp
    554c:	0ac6                	slli	s5,s5,0x11
    554e:	0000                	unimp
    5550:	0ac6                	slli	s5,s5,0x11
    5552:	0000                	unimp
    5554:	0ac6                	slli	s5,s5,0x11
    5556:	0000                	unimp
    5558:	0ac6                	slli	s5,s5,0x11
    555a:	0000                	unimp
    555c:	0faa                	slli	t6,t6,0xa
    555e:	0000                	unimp
    5560:	0992                	slli	s3,s3,0x4
    5562:	0000                	unimp
    5564:	09e6                	slli	s3,s3,0x19
    5566:	0000                	unimp
    5568:	0ed0                	addi	a2,sp,852
    556a:	0000                	unimp
    556c:	0d2e                	slli	s10,s10,0xb
    556e:	0000                	unimp
    5570:	0f9e                	slli	t6,t6,0x7
    5572:	0000                	unimp
    5574:	0dcc                	addi	a1,sp,724
    5576:	0000                	unimp
    5578:	0f9e                	slli	t6,t6,0x7
    557a:	0000                	unimp
    557c:	0ce0                	addi	s0,sp,604
    557e:	0000                	unimp
    5580:	0aee                	slli	s5,s5,0x1b
    5582:	0000                	unimp
    5584:	0f9e                	slli	t6,t6,0x7
    5586:	0000                	unimp
    5588:	0cf2                	slli	s9,s9,0x1c
    558a:	0000                	unimp
    558c:	0d16                	slli	s10,s10,0x5
    558e:	0000                	unimp
    5590:	0eb4                	addi	a3,sp,856
    5592:	0000                	unimp
    5594:	0fae                	slli	t6,t6,0xb
    5596:	0000                	unimp
    5598:	0c78                	addi	a4,sp,540
    559a:	0000                	unimp
    559c:	0b18                	addi	a4,sp,400
    559e:	0000                	unimp
    55a0:	0b2e                	slli	s6,s6,0xb
    55a2:	0000                	unimp
    55a4:	0bf0                	addi	a2,sp,476
    55a6:	0000                	unimp
    55a8:	0c78                	addi	a4,sp,540
    55aa:	0000                	unimp
    55ac:	0c78                	addi	a4,sp,540
    55ae:	0000                	unimp
    55b0:	0c78                	addi	a4,sp,540
    55b2:	0000                	unimp
    55b4:	0c78                	addi	a4,sp,540
    55b6:	0000                	unimp
    55b8:	0c78                	addi	a4,sp,540
    55ba:	0000                	unimp
    55bc:	0c78                	addi	a4,sp,540
    55be:	0000                	unimp
    55c0:	0c78                	addi	a4,sp,540
    55c2:	0000                	unimp
    55c4:	0c78                	addi	a4,sp,540
    55c6:	0000                	unimp
    55c8:	0c78                	addi	a4,sp,540
    55ca:	0000                	unimp
    55cc:	0c78                	addi	a4,sp,540
    55ce:	0000                	unimp
    55d0:	0c78                	addi	a4,sp,540
    55d2:	0000                	unimp
    55d4:	0c78                	addi	a4,sp,540
    55d6:	0000                	unimp
    55d8:	0c78                	addi	a4,sp,540
    55da:	0000                	unimp
    55dc:	0c78                	addi	a4,sp,540
    55de:	0000                	unimp
    55e0:	0c78                	addi	a4,sp,540
    55e2:	0000                	unimp
    55e4:	0c78                	addi	a4,sp,540
    55e6:	0000                	unimp
    55e8:	0c78                	addi	a4,sp,540
    55ea:	0000                	unimp
    55ec:	0c78                	addi	a4,sp,540
    55ee:	0000                	unimp
    55f0:	0c78                	addi	a4,sp,540
    55f2:	0000                	unimp
    55f4:	0c78                	addi	a4,sp,540
    55f6:	0000                	unimp
    55f8:	0c78                	addi	a4,sp,540
    55fa:	0000                	unimp
    55fc:	0c78                	addi	a4,sp,540
    55fe:	0000                	unimp
    5600:	0c78                	addi	a4,sp,540
    5602:	0000                	unimp
    5604:	0c78                	addi	a4,sp,540
    5606:	0000                	unimp
    5608:	0c78                	addi	a4,sp,540
    560a:	0000                	unimp
    560c:	0c78                	addi	a4,sp,540
    560e:	0000                	unimp
    5610:	0c78                	addi	a4,sp,540
    5612:	0000                	unimp
    5614:	0c78                	addi	a4,sp,540
    5616:	0000                	unimp
    5618:	0c78                	addi	a4,sp,540
    561a:	0000                	unimp
    561c:	0b60                	addi	s0,sp,412
    561e:	0000                	unimp
    5620:	0ba6                	slli	s7,s7,0x9
	...

00005624 <MyDevDescr>:
    5624:	0112 0200 0000 4000 1a86 fe00 0100 0201     .......@........
    5634:	0103 0000                                   ....

00005638 <MyCfgDescr>:
    5638:	0209 003b 0102 a000 0932 0004 0100 0103     ..;.....2.......
    5648:	0001 2109 0111 0100 3e22 0700 8105 0803     ...!....">......
    5658:	0a00 0409 0001 0301 0201 0900 1021 0001     ............!...
    5668:	2201 0034 0507 0382 0008 0001               ."4.........

00005674 <KeyRepDesc>:
    5674:	0105 0609 01a1 0705 e019 e729 0015 0125     ..........)...%.
    5684:	0175 0895 0281 0195 0875 0181 0395 0175     u.......u.....u.
    5694:	0805 0119 0329 0291 0595 0175 0191 0695     ....).....u.....
    56a4:	0875 ff26 0500 1907 2900 8191 c000 0000     u.&......)......

000056b4 <MouseRepDesc>:
    56b4:	0105 0209 01a1 0109 00a1 0905 0119 0329     ..............).
    56c4:	0015 0125 0175 0395 0281 0575 0195 0181     ..%.u.....u.....
    56d4:	0105 3009 3109 3809 8115 7f25 0875 0395     ...0.1.8..%.u...
    56e4:	0681 c0c0                                   ....

000056e8 <MyManuInfo>:
    56e8:	030e 0077 0063 0068 002e 0063 006e 0000     ..w.c.h...c.n...

000056f8 <MyProdInfo>:
    56f8:	0312 0043 0048 0033 0032 0056 0033 0030     ..C.H.3.2.V.3.0.
    5708:	0078 0000                                   x...

0000570c <MySerNumInfo>:
    570c:	0316 0030 0031 0032 0033 0034 0035 0036     ..0.1.2.3.4.5.6.
    571c:	0037 0038 0039 0000                         7.8.9...
